
gcc/bin//puwmod01.exe:     file format elf64-x86-64


Disassembly of section .init:

0000000000400908 <_init>:
  400908:	48 83 ec 08          	sub    $0x8,%rsp
  40090c:	48 8b 05 e5 a6 20 00 	mov    0x20a6e5(%rip),%rax        # 60aff8 <_DYNAMIC+0x1d0>
  400913:	48 85 c0             	test   %rax,%rax
  400916:	74 05                	je     40091d <_init+0x15>
  400918:	e8 d3 00 00 00       	callq  4009f0 <__gmon_start__@plt>
  40091d:	48 83 c4 08          	add    $0x8,%rsp
  400921:	c3                   	retq   

Disassembly of section .plt:

0000000000400930 <__ctype_toupper_loc@plt-0x10>:
  400930:	ff 35 d2 a6 20 00    	pushq  0x20a6d2(%rip)        # 60b008 <_GLOBAL_OFFSET_TABLE_+0x8>
  400936:	ff 25 d4 a6 20 00    	jmpq   *0x20a6d4(%rip)        # 60b010 <_GLOBAL_OFFSET_TABLE_+0x10>
  40093c:	0f 1f 40 00          	nopl   0x0(%rax)

0000000000400940 <__ctype_toupper_loc@plt>:
  400940:	ff 25 d2 a6 20 00    	jmpq   *0x20a6d2(%rip)        # 60b018 <_GLOBAL_OFFSET_TABLE_+0x18>
  400946:	68 00 00 00 00       	pushq  $0x0
  40094b:	e9 e0 ff ff ff       	jmpq   400930 <_init+0x28>

0000000000400950 <__strcat_chk@plt>:
  400950:	ff 25 ca a6 20 00    	jmpq   *0x20a6ca(%rip)        # 60b020 <_GLOBAL_OFFSET_TABLE_+0x20>
  400956:	68 01 00 00 00       	pushq  $0x1
  40095b:	e9 d0 ff ff ff       	jmpq   400930 <_init+0x28>

0000000000400960 <free@plt>:
  400960:	ff 25 c2 a6 20 00    	jmpq   *0x20a6c2(%rip)        # 60b028 <_GLOBAL_OFFSET_TABLE_+0x28>
  400966:	68 02 00 00 00       	pushq  $0x2
  40096b:	e9 c0 ff ff ff       	jmpq   400930 <_init+0x28>

0000000000400970 <strcpy@plt>:
  400970:	ff 25 ba a6 20 00    	jmpq   *0x20a6ba(%rip)        # 60b030 <_GLOBAL_OFFSET_TABLE_+0x30>
  400976:	68 03 00 00 00       	pushq  $0x3
  40097b:	e9 b0 ff ff ff       	jmpq   400930 <_init+0x28>

0000000000400980 <clock@plt>:
  400980:	ff 25 b2 a6 20 00    	jmpq   *0x20a6b2(%rip)        # 60b038 <_GLOBAL_OFFSET_TABLE_+0x38>
  400986:	68 04 00 00 00       	pushq  $0x4
  40098b:	e9 a0 ff ff ff       	jmpq   400930 <_init+0x28>

0000000000400990 <strlen@plt>:
  400990:	ff 25 aa a6 20 00    	jmpq   *0x20a6aa(%rip)        # 60b040 <_GLOBAL_OFFSET_TABLE_+0x40>
  400996:	68 05 00 00 00       	pushq  $0x5
  40099b:	e9 90 ff ff ff       	jmpq   400930 <_init+0x28>

00000000004009a0 <__stack_chk_fail@plt>:
  4009a0:	ff 25 a2 a6 20 00    	jmpq   *0x20a6a2(%rip)        # 60b048 <_GLOBAL_OFFSET_TABLE_+0x48>
  4009a6:	68 06 00 00 00       	pushq  $0x6
  4009ab:	e9 80 ff ff ff       	jmpq   400930 <_init+0x28>

00000000004009b0 <fgetc@plt>:
  4009b0:	ff 25 9a a6 20 00    	jmpq   *0x20a69a(%rip)        # 60b050 <_GLOBAL_OFFSET_TABLE_+0x50>
  4009b6:	68 07 00 00 00       	pushq  $0x7
  4009bb:	e9 70 ff ff ff       	jmpq   400930 <_init+0x28>

00000000004009c0 <__libc_start_main@plt>:
  4009c0:	ff 25 92 a6 20 00    	jmpq   *0x20a692(%rip)        # 60b058 <_GLOBAL_OFFSET_TABLE_+0x58>
  4009c6:	68 08 00 00 00       	pushq  $0x8
  4009cb:	e9 60 ff ff ff       	jmpq   400930 <_init+0x28>

00000000004009d0 <_setjmp@plt>:
  4009d0:	ff 25 8a a6 20 00    	jmpq   *0x20a68a(%rip)        # 60b060 <_GLOBAL_OFFSET_TABLE_+0x60>
  4009d6:	68 09 00 00 00       	pushq  $0x9
  4009db:	e9 50 ff ff ff       	jmpq   400930 <_init+0x28>

00000000004009e0 <strcmp@plt>:
  4009e0:	ff 25 82 a6 20 00    	jmpq   *0x20a682(%rip)        # 60b068 <_GLOBAL_OFFSET_TABLE_+0x68>
  4009e6:	68 0a 00 00 00       	pushq  $0xa
  4009eb:	e9 40 ff ff ff       	jmpq   400930 <_init+0x28>

00000000004009f0 <__gmon_start__@plt>:
  4009f0:	ff 25 7a a6 20 00    	jmpq   *0x20a67a(%rip)        # 60b070 <_GLOBAL_OFFSET_TABLE_+0x70>
  4009f6:	68 0b 00 00 00       	pushq  $0xb
  4009fb:	e9 30 ff ff ff       	jmpq   400930 <_init+0x28>

0000000000400a00 <strtol@plt>:
  400a00:	ff 25 72 a6 20 00    	jmpq   *0x20a672(%rip)        # 60b078 <_GLOBAL_OFFSET_TABLE_+0x78>
  400a06:	68 0c 00 00 00       	pushq  $0xc
  400a0b:	e9 20 ff ff ff       	jmpq   400930 <_init+0x28>

0000000000400a10 <malloc@plt>:
  400a10:	ff 25 6a a6 20 00    	jmpq   *0x20a66a(%rip)        # 60b080 <_GLOBAL_OFFSET_TABLE_+0x80>
  400a16:	68 0d 00 00 00       	pushq  $0xd
  400a1b:	e9 10 ff ff ff       	jmpq   400930 <_init+0x28>

0000000000400a20 <__longjmp_chk@plt>:
  400a20:	ff 25 62 a6 20 00    	jmpq   *0x20a662(%rip)        # 60b088 <_GLOBAL_OFFSET_TABLE_+0x88>
  400a26:	68 0e 00 00 00       	pushq  $0xe
  400a2b:	e9 00 ff ff ff       	jmpq   400930 <_init+0x28>

0000000000400a30 <exit@plt>:
  400a30:	ff 25 5a a6 20 00    	jmpq   *0x20a65a(%rip)        # 60b090 <_GLOBAL_OFFSET_TABLE_+0x90>
  400a36:	68 0f 00 00 00       	pushq  $0xf
  400a3b:	e9 f0 fe ff ff       	jmpq   400930 <_init+0x28>

0000000000400a40 <fwrite@plt>:
  400a40:	ff 25 52 a6 20 00    	jmpq   *0x20a652(%rip)        # 60b098 <_GLOBAL_OFFSET_TABLE_+0x98>
  400a46:	68 10 00 00 00       	pushq  $0x10
  400a4b:	e9 e0 fe ff ff       	jmpq   400930 <_init+0x28>

0000000000400a50 <__fprintf_chk@plt>:
  400a50:	ff 25 4a a6 20 00    	jmpq   *0x20a64a(%rip)        # 60b0a0 <_GLOBAL_OFFSET_TABLE_+0xa0>
  400a56:	68 11 00 00 00       	pushq  $0x11
  400a5b:	e9 d0 fe ff ff       	jmpq   400930 <_init+0x28>

0000000000400a60 <__vsprintf_chk@plt>:
  400a60:	ff 25 42 a6 20 00    	jmpq   *0x20a642(%rip)        # 60b0a8 <_GLOBAL_OFFSET_TABLE_+0xa8>
  400a66:	68 12 00 00 00       	pushq  $0x12
  400a6b:	e9 c0 fe ff ff       	jmpq   400930 <_init+0x28>

0000000000400a70 <__ctype_b_loc@plt>:
  400a70:	ff 25 3a a6 20 00    	jmpq   *0x20a63a(%rip)        # 60b0b0 <_GLOBAL_OFFSET_TABLE_+0xb0>
  400a76:	68 13 00 00 00       	pushq  $0x13
  400a7b:	e9 b0 fe ff ff       	jmpq   400930 <_init+0x28>

Disassembly of section .text:

0000000000400a80 <main>:
  400a80:	48 83 ec 18          	sub    $0x18,%rsp
  400a84:	89 7c 24 04          	mov    %edi,0x4(%rsp)
  400a88:	bf 00 00 40 00       	mov    $0x400000,%edi
  400a8d:	48 89 74 24 08       	mov    %rsi,0x8(%rsp)
  400a92:	e8 79 ff ff ff       	callq  400a10 <malloc@plt>
  400a97:	48 85 c0             	test   %rax,%rax
  400a9a:	48 89 05 87 a9 20 00 	mov    %rax,0x20a987(%rip)        # 60b428 <mem_base>
  400aa1:	48 c7 05 74 a9 20 00 	movq   $0x400000,0x20a974(%rip)        # 60b420 <mem_size>
  400aa8:	00 00 40 00 
  400aac:	74 30                	je     400ade <main+0x5e>
  400aae:	bf 40 b4 60 00       	mov    $0x60b440,%edi
  400ab3:	e8 18 ff ff ff       	callq  4009d0 <_setjmp@plt>
  400ab8:	85 c0                	test   %eax,%eax
  400aba:	74 12                	je     400ace <main+0x4e>
  400abc:	3d 01 80 ff ff       	cmp    $0xffff8001,%eax
  400ac1:	ba 00 00 00 00       	mov    $0x0,%edx
  400ac6:	0f 44 c2             	cmove  %edx,%eax
  400ac9:	48 83 c4 18          	add    $0x18,%rsp
  400acd:	c3                   	retq   
  400ace:	48 8b 74 24 08       	mov    0x8(%rsp),%rsi
  400ad3:	8b 7c 24 04          	mov    0x4(%rsp),%edi
  400ad7:	e8 f4 1b 00 00       	callq  4026d0 <th_main>
  400adc:	eb de                	jmp    400abc <main+0x3c>
  400ade:	48 8b 3d 4b a8 20 00 	mov    0x20a84b(%rip),%rdi        # 60b330 <stderr@@GLIBC_2.2.5>
  400ae5:	ba 22 90 40 00       	mov    $0x409022,%edx
  400aea:	be 01 00 00 00       	mov    $0x1,%esi
  400aef:	e8 5c ff ff ff       	callq  400a50 <__fprintf_chk@plt>
  400af4:	31 ff                	xor    %edi,%edi
  400af6:	e8 35 ff ff ff       	callq  400a30 <exit@plt>

0000000000400afb <_start>:
  400afb:	31 ed                	xor    %ebp,%ebp
  400afd:	49 89 d1             	mov    %rdx,%r9
  400b00:	5e                   	pop    %rsi
  400b01:	48 89 e2             	mov    %rsp,%rdx
  400b04:	48 83 e4 f0          	and    $0xfffffffffffffff0,%rsp
  400b08:	50                   	push   %rax
  400b09:	54                   	push   %rsp
  400b0a:	49 c7 c0 e0 43 40 00 	mov    $0x4043e0,%r8
  400b11:	48 c7 c1 70 43 40 00 	mov    $0x404370,%rcx
  400b18:	48 c7 c7 80 0a 40 00 	mov    $0x400a80,%rdi
  400b1f:	e8 9c fe ff ff       	callq  4009c0 <__libc_start_main@plt>
  400b24:	f4                   	hlt    
  400b25:	66 2e 0f 1f 84 00 00 	nopw   %cs:0x0(%rax,%rax,1)
  400b2c:	00 00 00 
  400b2f:	90                   	nop

0000000000400b30 <deregister_tm_clones>:
  400b30:	b8 17 b3 60 00       	mov    $0x60b317,%eax
  400b35:	55                   	push   %rbp
  400b36:	48 2d 10 b3 60 00    	sub    $0x60b310,%rax
  400b3c:	48 83 f8 0e          	cmp    $0xe,%rax
  400b40:	48 89 e5             	mov    %rsp,%rbp
  400b43:	77 02                	ja     400b47 <deregister_tm_clones+0x17>
  400b45:	5d                   	pop    %rbp
  400b46:	c3                   	retq   
  400b47:	b8 00 00 00 00       	mov    $0x0,%eax
  400b4c:	48 85 c0             	test   %rax,%rax
  400b4f:	74 f4                	je     400b45 <deregister_tm_clones+0x15>
  400b51:	5d                   	pop    %rbp
  400b52:	bf 10 b3 60 00       	mov    $0x60b310,%edi
  400b57:	ff e0                	jmpq   *%rax
  400b59:	0f 1f 80 00 00 00 00 	nopl   0x0(%rax)

0000000000400b60 <register_tm_clones>:
  400b60:	b8 10 b3 60 00       	mov    $0x60b310,%eax
  400b65:	55                   	push   %rbp
  400b66:	48 2d 10 b3 60 00    	sub    $0x60b310,%rax
  400b6c:	48 c1 f8 03          	sar    $0x3,%rax
  400b70:	48 89 e5             	mov    %rsp,%rbp
  400b73:	48 89 c2             	mov    %rax,%rdx
  400b76:	48 c1 ea 3f          	shr    $0x3f,%rdx
  400b7a:	48 01 d0             	add    %rdx,%rax
  400b7d:	48 d1 f8             	sar    %rax
  400b80:	75 02                	jne    400b84 <register_tm_clones+0x24>
  400b82:	5d                   	pop    %rbp
  400b83:	c3                   	retq   
  400b84:	ba 00 00 00 00       	mov    $0x0,%edx
  400b89:	48 85 d2             	test   %rdx,%rdx
  400b8c:	74 f4                	je     400b82 <register_tm_clones+0x22>
  400b8e:	5d                   	pop    %rbp
  400b8f:	48 89 c6             	mov    %rax,%rsi
  400b92:	bf 10 b3 60 00       	mov    $0x60b310,%edi
  400b97:	ff e2                	jmpq   *%rdx
  400b99:	0f 1f 80 00 00 00 00 	nopl   0x0(%rax)

0000000000400ba0 <__do_global_dtors_aux>:
  400ba0:	80 3d 91 a7 20 00 00 	cmpb   $0x0,0x20a791(%rip)        # 60b338 <completed.6973>
  400ba7:	75 11                	jne    400bba <__do_global_dtors_aux+0x1a>
  400ba9:	55                   	push   %rbp
  400baa:	48 89 e5             	mov    %rsp,%rbp
  400bad:	e8 7e ff ff ff       	callq  400b30 <deregister_tm_clones>
  400bb2:	5d                   	pop    %rbp
  400bb3:	c6 05 7e a7 20 00 01 	movb   $0x1,0x20a77e(%rip)        # 60b338 <completed.6973>
  400bba:	f3 c3                	repz retq 
  400bbc:	0f 1f 40 00          	nopl   0x0(%rax)

0000000000400bc0 <frame_dummy>:
  400bc0:	48 83 3d 58 a2 20 00 	cmpq   $0x0,0x20a258(%rip)        # 60ae20 <__JCR_END__>
  400bc7:	00 
  400bc8:	74 1e                	je     400be8 <frame_dummy+0x28>
  400bca:	b8 00 00 00 00       	mov    $0x0,%eax
  400bcf:	48 85 c0             	test   %rax,%rax
  400bd2:	74 14                	je     400be8 <frame_dummy+0x28>
  400bd4:	55                   	push   %rbp
  400bd5:	bf 20 ae 60 00       	mov    $0x60ae20,%edi
  400bda:	48 89 e5             	mov    %rsp,%rbp
  400bdd:	ff d0                	callq  *%rax
  400bdf:	5d                   	pop    %rbp
  400be0:	e9 7b ff ff ff       	jmpq   400b60 <register_tm_clones>
  400be5:	0f 1f 00             	nopl   (%rax)
  400be8:	e9 73 ff ff ff       	jmpq   400b60 <register_tm_clones>
  400bed:	0f 1f 00             	nopl   (%rax)

0000000000400bf0 <GetTestData>:
  400bf0:	48 83 ec 08          	sub    $0x8,%rsp
  400bf4:	ba 45 13 00 00       	mov    $0x1345,%edx
  400bf9:	be 04 44 40 00       	mov    $0x404404,%esi
  400bfe:	bf a8 4b 00 00       	mov    $0x4ba8,%edi
  400c03:	e8 58 27 00 00       	callq  403360 <th_malloc_x>
  400c08:	48 85 c0             	test   %rax,%rax
  400c0b:	48 89 05 d6 b9 20 00 	mov    %rax,0x20b9d6(%rip)        # 60c5e8 <inpCmdPosition>
  400c12:	74 2e                	je     400c42 <GetTestData+0x52>
  400c14:	31 d2                	xor    %edx,%edx
  400c16:	66 2e 0f 1f 84 00 00 	nopw   %cs:0x0(%rax,%rax,1)
  400c1d:	00 00 00 
  400c20:	48 8b 8a 20 44 40 00 	mov    0x404420(%rdx),%rcx
  400c27:	48 89 0c 10          	mov    %rcx,(%rax,%rdx,1)
  400c2b:	48 83 c2 08          	add    $0x8,%rdx
  400c2f:	48 81 fa a0 4b 00 00 	cmp    $0x4ba0,%rdx
  400c36:	75 e8                	jne    400c20 <GetTestData+0x30>
  400c38:	b8 01 00 00 00       	mov    $0x1,%eax
  400c3d:	48 83 c4 08          	add    $0x8,%rsp
  400c41:	c3                   	retq   
  400c42:	31 c0                	xor    %eax,%eax
  400c44:	48 83 c4 08          	add    $0x8,%rsp
  400c48:	c3                   	retq   
  400c49:	0f 1f 80 00 00 00 00 	nopl   0x0(%rax)

0000000000400c50 <GetInputValues>:
  400c50:	8b 05 9a b9 20 00    	mov    0x20b99a(%rip),%eax        # 60c5f0 <tableCount>
  400c56:	48 8b 15 8b b9 20 00 	mov    0x20b98b(%rip),%rdx        # 60c5e8 <inpCmdPosition>
  400c5d:	48 63 c8             	movslq %eax,%rcx
  400c60:	83 c0 01             	add    $0x1,%eax
  400c63:	48 8b 14 ca          	mov    (%rdx,%rcx,8),%rdx
  400c67:	3d 73 09 00 00       	cmp    $0x973,%eax
  400c6c:	48 89 15 95 b9 20 00 	mov    %rdx,0x20b995(%rip)        # 60c608 <commandPos>
  400c73:	7e 13                	jle    400c88 <GetInputValues+0x38>
  400c75:	c7 05 71 b9 20 00 00 	movl   $0x0,0x20b971(%rip)        # 60c5f0 <tableCount>
  400c7c:	00 00 00 
  400c7f:	b8 01 00 00 00       	mov    $0x1,%eax
  400c84:	c3                   	retq   
  400c85:	0f 1f 00             	nopl   (%rax)
  400c88:	89 05 62 b9 20 00    	mov    %eax,0x20b962(%rip)        # 60c5f0 <tableCount>
  400c8e:	31 c0                	xor    %eax,%eax
  400c90:	c3                   	retq   
  400c91:	66 2e 0f 1f 84 00 00 	nopw   %cs:0x0(%rax,%rax,1)
  400c98:	00 00 00 
  400c9b:	0f 1f 44 00 00       	nopl   0x0(%rax,%rax,1)

0000000000400ca0 <test_main>:
  400ca0:	48 c7 07 e0 b0 60 00 	movq   $0x60b0e0,(%rdi)
  400ca7:	31 c0                	xor    %eax,%eax
  400ca9:	c3                   	retq   
  400caa:	66 0f 1f 44 00 00    	nopw   0x0(%rax,%rax,1)

0000000000400cb0 <t_run_test>:
  400cb0:	41 54                	push   %r12
  400cb2:	ba 18 01 00 00       	mov    $0x118,%edx
  400cb7:	be c0 8f 40 00       	mov    $0x408fc0,%esi
  400cbc:	55                   	push   %rbp
  400cbd:	53                   	push   %rbx
  400cbe:	48 89 fb             	mov    %rdi,%rbx
  400cc1:	bf 08 04 00 00       	mov    $0x408,%edi
  400cc6:	48 83 ec 40          	sub    $0x40,%rsp
  400cca:	c7 05 2c a7 20 00 00 	movl   $0x0,0x20a72c(%rip)        # 60b400 <pwmCounter1.2501>
  400cd1:	00 00 00 
  400cd4:	c7 05 1e a7 20 00 00 	movl   $0x0,0x20a71e(%rip)        # 60b3fc <pwmCounter2.2502>
  400cdb:	00 00 00 
  400cde:	c7 05 10 a7 20 00 00 	movl   $0x0,0x20a710(%rip)        # 60b3f8 <pwmCounter3.2503>
  400ce5:	00 00 00 
  400ce8:	c7 05 02 a7 20 00 00 	movl   $0x0,0x20a702(%rip)        # 60b3f4 <dirPhaseA1.2483>
  400cef:	00 00 00 
  400cf2:	c7 05 f4 a6 20 00 00 	movl   $0x0,0x20a6f4(%rip)        # 60b3f0 <dirPhaseA2.2484>
  400cf9:	00 00 00 
  400cfc:	c7 05 e6 a6 20 00 00 	movl   $0x0,0x20a6e6(%rip)        # 60b3ec <dirPhaseA3.2485>
  400d03:	00 00 00 
  400d06:	c7 05 d8 a6 20 00 00 	movl   $0x0,0x20a6d8(%rip)        # 60b3e8 <dirPhaseB1.2489>
  400d0d:	00 00 00 
  400d10:	c7 05 ca a6 20 00 00 	movl   $0x0,0x20a6ca(%rip)        # 60b3e4 <dirPhaseB2.2490>
  400d17:	00 00 00 
  400d1a:	c7 05 bc a6 20 00 00 	movl   $0x0,0x20a6bc(%rip)        # 60b3e0 <dirPhaseB3.2491>
  400d21:	00 00 00 
  400d24:	c7 05 ae a6 20 00 01 	movl   $0x1,0x20a6ae(%rip)        # 60b3dc <enbPhaseA1.2480>
  400d2b:	00 00 00 
  400d2e:	c7 05 a0 a6 20 00 01 	movl   $0x1,0x20a6a0(%rip)        # 60b3d8 <enbPhaseA2.2481>
  400d35:	00 00 00 
  400d38:	c7 05 92 a6 20 00 01 	movl   $0x1,0x20a692(%rip)        # 60b3d4 <enbPhaseA3.2482>
  400d3f:	00 00 00 
  400d42:	c7 05 84 a6 20 00 01 	movl   $0x1,0x20a684(%rip)        # 60b3d0 <enbPhaseB1.2486>
  400d49:	00 00 00 
  400d4c:	c7 05 76 a6 20 00 01 	movl   $0x1,0x20a676(%rip)        # 60b3cc <enbPhaseB2.2487>
  400d53:	00 00 00 
  400d56:	c7 05 68 a6 20 00 01 	movl   $0x1,0x20a668(%rip)        # 60b3c8 <enbPhaseB3.2488>
  400d5d:	00 00 00 
  400d60:	c7 05 5a a6 20 00 0a 	movl   $0xa,0x20a65a(%rip)        # 60b3c4 <pwmPhaseA1.2504>
  400d67:	00 00 00 
  400d6a:	c7 05 4c a6 20 00 0a 	movl   $0xa,0x20a64c(%rip)        # 60b3c0 <pwmPhaseA2.2505>
  400d71:	00 00 00 
  400d74:	c7 05 3e a6 20 00 0a 	movl   $0xa,0x20a63e(%rip)        # 60b3bc <pwmPhaseA3.2506>
  400d7b:	00 00 00 
  400d7e:	c7 05 30 a6 20 00 0a 	movl   $0xa,0x20a630(%rip)        # 60b3b8 <pwmPhaseB1.2507>
  400d85:	00 00 00 
  400d88:	c7 05 22 a6 20 00 0a 	movl   $0xa,0x20a622(%rip)        # 60b3b4 <pwmPhaseB2.2508>
  400d8f:	00 00 00 
  400d92:	c7 05 14 a6 20 00 0a 	movl   $0xa,0x20a614(%rip)        # 60b3b0 <pwmPhaseB3.2509>
  400d99:	00 00 00 
  400d9c:	c7 05 06 a6 20 00 01 	movl   $0x1,0x20a606(%rip)        # 60b3ac <upDirection1.2474>
  400da3:	00 00 00 
  400da6:	c7 05 f8 a5 20 00 01 	movl   $0x1,0x20a5f8(%rip)        # 60b3a8 <upDirection2.2475>
  400dad:	00 00 00 
  400db0:	c7 05 ea a5 20 00 01 	movl   $0x1,0x20a5ea(%rip)        # 60b3a4 <upDirection3.2476>
  400db7:	00 00 00 
  400dba:	c7 05 dc a5 20 00 01 	movl   $0x1,0x20a5dc(%rip)        # 60b3a0 <lastDirection1.2477>
  400dc1:	00 00 00 
  400dc4:	c7 05 ce a5 20 00 01 	movl   $0x1,0x20a5ce(%rip)        # 60b39c <lastDirection2.2478>
  400dcb:	00 00 00 
  400dce:	c7 05 c0 a5 20 00 01 	movl   $0x1,0x20a5c0(%rip)        # 60b398 <lastDirection3.2479>
  400dd5:	00 00 00 
  400dd8:	c7 05 b2 a5 20 00 01 	movl   $0x1,0x20a5b2(%rip)        # 60b394 <incrementA1.2492>
  400ddf:	00 00 00 
  400de2:	c7 05 a4 a5 20 00 01 	movl   $0x1,0x20a5a4(%rip)        # 60b390 <incrementA2.2493>
  400de9:	00 00 00 
  400dec:	c7 05 96 a5 20 00 01 	movl   $0x1,0x20a596(%rip)        # 60b38c <incrementA3.2494>
  400df3:	00 00 00 
  400df6:	c7 05 88 a5 20 00 00 	movl   $0x0,0x20a588(%rip)        # 60b388 <incrementB1.2495>
  400dfd:	00 00 00 
  400e00:	c7 05 7a a5 20 00 00 	movl   $0x0,0x20a57a(%rip)        # 60b384 <incrementB2.2496>
  400e07:	00 00 00 
  400e0a:	c7 05 6c a5 20 00 00 	movl   $0x0,0x20a56c(%rip)        # 60b380 <incrementB3.2497>
  400e11:	00 00 00 
  400e14:	48 c7 05 59 a5 20 00 	movq   $0x0,0x20a559(%rip)        # 60b378 <internalPos1.2498>
  400e1b:	00 00 00 00 
  400e1f:	48 c7 05 46 a5 20 00 	movq   $0x0,0x20a546(%rip)        # 60b370 <internalPos2.2499>
  400e26:	00 00 00 00 
  400e2a:	48 c7 05 33 a5 20 00 	movq   $0x0,0x20a533(%rip)        # 60b368 <internalPos3.2500>
  400e31:	00 00 00 00 
  400e35:	c7 05 b1 b7 20 00 00 	movl   $0x0,0x20b7b1(%rip)        # 60c5f0 <tableCount>
  400e3c:	00 00 00 
  400e3f:	48 c7 05 b6 b7 20 00 	movq   $0x0,0x20b7b6(%rip)        # 60c600 <RAMfilePtr>
  400e46:	00 00 00 00 
  400e4a:	c7 05 8c b7 20 00 00 	movl   $0x100,0x20b78c(%rip)        # 60c5e0 <RAMfileSize>
  400e51:	01 00 00 
  400e54:	e8 07 25 00 00       	callq  403360 <th_malloc_x>
  400e59:	48 85 c0             	test   %rax,%rax
  400e5c:	48 89 05 ad b7 20 00 	mov    %rax,0x20b7ad(%rip)        # 60c610 <RAMfile>
  400e63:	0f 84 21 0c 00 00    	je     401a8a <t_run_test+0xdda>
  400e69:	48 63 15 70 b7 20 00 	movslq 0x20b770(%rip),%rdx        # 60c5e0 <RAMfileSize>
  400e70:	48 83 c0 07          	add    $0x7,%rax
  400e74:	c7 05 9a b7 20 00 02 	movl   $0x2,0x20b79a(%rip)        # 60c618 <RAMfile_increment>
  400e7b:	00 00 00 
  400e7e:	48 83 e0 f8          	and    $0xfffffffffffffff8,%rax
  400e82:	c6 05 b7 a4 20 00 31 	movb   $0x31,0x20a4b7(%rip)        # 60b340 <szDataSize.2472>
  400e89:	c6 05 b1 a4 20 00 00 	movb   $0x0,0x20a4b1(%rip)        # 60b341 <szDataSize.2472+0x1>
  400e90:	48 89 05 79 b7 20 00 	mov    %rax,0x20b779(%rip)        # 60c610 <RAMfile>
  400e97:	48 89 05 62 b7 20 00 	mov    %rax,0x20b762(%rip)        # 60c600 <RAMfilePtr>
  400e9e:	48 8d 04 90          	lea    (%rax,%rdx,4),%rax
  400ea2:	48 89 05 4f b7 20 00 	mov    %rax,0x20b74f(%rip)        # 60c5f8 <RAMfileEOF>
  400ea9:	e8 42 fd ff ff       	callq  400bf0 <GetTestData>
  400eae:	85 c0                	test   %eax,%eax
  400eb0:	0f 84 b6 0b 00 00    	je     401a6c <t_run_test+0xdbc>
  400eb6:	e8 d5 24 00 00       	callq  403390 <th_signal_start>
  400ebb:	48 85 db             	test   %rbx,%rbx
  400ebe:	66 90                	xchg   %ax,%ax
  400ec0:	0f 84 ea 09 00 00    	je     4018b0 <t_run_test+0xc00>
  400ec6:	31 ed                	xor    %ebp,%ebp
  400ec8:	e9 54 02 00 00       	jmpq   401121 <t_run_test+0x471>
  400ecd:	0f 1f 00             	nopl   (%rax)
  400ed0:	4c 63 05 f9 a4 20 00 	movslq 0x20a4f9(%rip),%r8        # 60b3d0 <enbPhaseB1.2486>
  400ed7:	48 63 05 3a b7 20 00 	movslq 0x20b73a(%rip),%rax        # 60c618 <RAMfile_increment>
  400ede:	48 8b 0d 1b b7 20 00 	mov    0x20b71b(%rip),%rcx        # 60c600 <RAMfilePtr>
  400ee5:	48 8b 15 0c b7 20 00 	mov    0x20b70c(%rip),%rdx        # 60c5f8 <RAMfileEOF>
  400eec:	48 63 3d 01 a5 20 00 	movslq 0x20a501(%rip),%rdi        # 60b3f4 <dirPhaseA1.2483>
  400ef3:	48 c1 e0 02          	shl    $0x2,%rax
  400ef7:	48 8d 34 01          	lea    (%rcx,%rax,1),%rsi
  400efb:	48 39 d6             	cmp    %rdx,%rsi
  400efe:	76 0b                	jbe    400f0b <t_run_test+0x25b>
  400f00:	48 8b 0d 09 b7 20 00 	mov    0x20b709(%rip),%rcx        # 60c610 <RAMfile>
  400f07:	48 8d 34 01          	lea    (%rcx,%rax,1),%rsi
  400f0b:	48 89 39             	mov    %rdi,(%rcx)
  400f0e:	48 8d 0c 06          	lea    (%rsi,%rax,1),%rcx
  400f12:	48 63 3d c3 a4 20 00 	movslq 0x20a4c3(%rip),%rdi        # 60b3dc <enbPhaseA1.2480>
  400f19:	48 39 ca             	cmp    %rcx,%rdx
  400f1c:	73 0b                	jae    400f29 <t_run_test+0x279>
  400f1e:	48 8b 35 eb b6 20 00 	mov    0x20b6eb(%rip),%rsi        # 60c610 <RAMfile>
  400f25:	48 8d 0c 06          	lea    (%rsi,%rax,1),%rcx
  400f29:	48 89 3e             	mov    %rdi,(%rsi)
  400f2c:	48 8d 34 01          	lea    (%rcx,%rax,1),%rsi
  400f30:	48 63 3d b1 a4 20 00 	movslq 0x20a4b1(%rip),%rdi        # 60b3e8 <dirPhaseB1.2489>
  400f37:	48 39 f2             	cmp    %rsi,%rdx
  400f3a:	73 0b                	jae    400f47 <t_run_test+0x297>
  400f3c:	48 8b 0d cd b6 20 00 	mov    0x20b6cd(%rip),%rcx        # 60c610 <RAMfile>
  400f43:	48 8d 34 01          	lea    (%rcx,%rax,1),%rsi
  400f47:	48 89 39             	mov    %rdi,(%rcx)
  400f4a:	48 8d 0c 06          	lea    (%rsi,%rax,1),%rcx
  400f4e:	48 39 ca             	cmp    %rcx,%rdx
  400f51:	73 0b                	jae    400f5e <t_run_test+0x2ae>
  400f53:	48 8b 35 b6 b6 20 00 	mov    0x20b6b6(%rip),%rsi        # 60c610 <RAMfile>
  400f5a:	48 8d 0c 06          	lea    (%rsi,%rax,1),%rcx
  400f5e:	8b 3d 98 a4 20 00    	mov    0x20a498(%rip),%edi        # 60b3fc <pwmCounter2.2502>
  400f64:	4c 89 06             	mov    %r8,(%rsi)
  400f67:	48 89 0d 92 b6 20 00 	mov    %rcx,0x20b692(%rip)        # 60c600 <RAMfilePtr>
  400f6e:	44 8d 67 01          	lea    0x1(%rdi),%r12d
  400f72:	41 83 fc 15          	cmp    $0x15,%r12d
  400f76:	0f 84 cc 06 00 00    	je     401648 <t_run_test+0x998>
  400f7c:	44 3b 25 3d a4 20 00 	cmp    0x20a43d(%rip),%r12d        # 60b3c0 <pwmPhaseA2.2505>
  400f83:	44 89 25 72 a4 20 00 	mov    %r12d,0x20a472(%rip)        # 60b3fc <pwmCounter2.2502>
  400f8a:	0f 84 90 06 00 00    	je     401620 <t_run_test+0x970>
  400f90:	44 39 25 1d a4 20 00 	cmp    %r12d,0x20a41d(%rip)        # 60b3b4 <pwmPhaseB2.2508>
  400f97:	0f 84 63 06 00 00    	je     401600 <t_run_test+0x950>
  400f9d:	45 85 e4             	test   %r12d,%r12d
  400fa0:	0f 84 fa 02 00 00    	je     4012a0 <t_run_test+0x5f0>
  400fa6:	4c 63 05 1f a4 20 00 	movslq 0x20a41f(%rip),%r8        # 60b3cc <enbPhaseB2.2487>
  400fad:	48 8d 34 01          	lea    (%rcx,%rax,1),%rsi
  400fb1:	48 63 3d 38 a4 20 00 	movslq 0x20a438(%rip),%rdi        # 60b3f0 <dirPhaseA2.2484>
  400fb8:	48 39 d6             	cmp    %rdx,%rsi
  400fbb:	76 0b                	jbe    400fc8 <t_run_test+0x318>
  400fbd:	48 8b 0d 4c b6 20 00 	mov    0x20b64c(%rip),%rcx        # 60c610 <RAMfile>
  400fc4:	48 8d 34 01          	lea    (%rcx,%rax,1),%rsi
  400fc8:	48 89 39             	mov    %rdi,(%rcx)
  400fcb:	48 8d 0c 06          	lea    (%rsi,%rax,1),%rcx
  400fcf:	48 63 3d 02 a4 20 00 	movslq 0x20a402(%rip),%rdi        # 60b3d8 <enbPhaseA2.2481>
  400fd6:	48 39 d1             	cmp    %rdx,%rcx
  400fd9:	76 0b                	jbe    400fe6 <t_run_test+0x336>
  400fdb:	48 8b 35 2e b6 20 00 	mov    0x20b62e(%rip),%rsi        # 60c610 <RAMfile>
  400fe2:	48 8d 0c 06          	lea    (%rsi,%rax,1),%rcx
  400fe6:	48 89 3e             	mov    %rdi,(%rsi)
  400fe9:	48 8d 34 01          	lea    (%rcx,%rax,1),%rsi
  400fed:	48 63 3d f0 a3 20 00 	movslq 0x20a3f0(%rip),%rdi        # 60b3e4 <dirPhaseB2.2490>
  400ff4:	48 39 d6             	cmp    %rdx,%rsi
  400ff7:	76 0b                	jbe    401004 <t_run_test+0x354>
  400ff9:	48 8b 0d 10 b6 20 00 	mov    0x20b610(%rip),%rcx        # 60c610 <RAMfile>
  401000:	48 8d 34 01          	lea    (%rcx,%rax,1),%rsi
  401004:	48 89 39             	mov    %rdi,(%rcx)
  401007:	48 8d 0c 06          	lea    (%rsi,%rax,1),%rcx
  40100b:	48 39 d1             	cmp    %rdx,%rcx
  40100e:	76 0b                	jbe    40101b <t_run_test+0x36b>
  401010:	48 8b 35 f9 b5 20 00 	mov    0x20b5f9(%rip),%rsi        # 60c610 <RAMfile>
  401017:	48 8d 0c 06          	lea    (%rsi,%rax,1),%rcx
  40101b:	8b 3d d7 a3 20 00    	mov    0x20a3d7(%rip),%edi        # 60b3f8 <pwmCounter3.2503>
  401021:	4c 89 06             	mov    %r8,(%rsi)
  401024:	48 89 0d d5 b5 20 00 	mov    %rcx,0x20b5d5(%rip)        # 60c600 <RAMfilePtr>
  40102b:	44 8d 67 01          	lea    0x1(%rdi),%r12d
  40102f:	41 83 fc 15          	cmp    $0x15,%r12d
  401033:	0f 84 17 05 00 00    	je     401550 <t_run_test+0x8a0>
  401039:	44 3b 25 7c a3 20 00 	cmp    0x20a37c(%rip),%r12d        # 60b3bc <pwmPhaseA3.2506>
  401040:	44 89 25 b1 a3 20 00 	mov    %r12d,0x20a3b1(%rip)        # 60b3f8 <pwmCounter3.2503>
  401047:	0f 84 3b 06 00 00    	je     401688 <t_run_test+0x9d8>
  40104d:	44 39 25 5c a3 20 00 	cmp    %r12d,0x20a35c(%rip)        # 60b3b0 <pwmPhaseB3.2509>
  401054:	0f 84 0e 06 00 00    	je     401668 <t_run_test+0x9b8>
  40105a:	45 85 e4             	test   %r12d,%r12d
  40105d:	0f 84 95 03 00 00    	je     4013f8 <t_run_test+0x748>
  401063:	4c 63 05 5e a3 20 00 	movslq 0x20a35e(%rip),%r8        # 60b3c8 <enbPhaseB3.2488>
  40106a:	48 8d 3c 01          	lea    (%rcx,%rax,1),%rdi
  40106e:	48 63 35 77 a3 20 00 	movslq 0x20a377(%rip),%rsi        # 60b3ec <dirPhaseA3.2485>
  401075:	48 39 d7             	cmp    %rdx,%rdi
  401078:	76 0b                	jbe    401085 <t_run_test+0x3d5>
  40107a:	48 8b 0d 8f b5 20 00 	mov    0x20b58f(%rip),%rcx        # 60c610 <RAMfile>
  401081:	48 8d 3c 01          	lea    (%rcx,%rax,1),%rdi
  401085:	48 89 31             	mov    %rsi,(%rcx)
  401088:	48 8d 34 07          	lea    (%rdi,%rax,1),%rsi
  40108c:	48 63 0d 41 a3 20 00 	movslq 0x20a341(%rip),%rcx        # 60b3d4 <enbPhaseA3.2482>
  401093:	48 39 d6             	cmp    %rdx,%rsi
  401096:	76 0b                	jbe    4010a3 <t_run_test+0x3f3>
  401098:	48 8b 3d 71 b5 20 00 	mov    0x20b571(%rip),%rdi        # 60c610 <RAMfile>
  40109f:	48 8d 34 07          	lea    (%rdi,%rax,1),%rsi
  4010a3:	48 89 0f             	mov    %rcx,(%rdi)
  4010a6:	48 8d 0c 06          	lea    (%rsi,%rax,1),%rcx
  4010aa:	48 63 3d 2f a3 20 00 	movslq 0x20a32f(%rip),%rdi        # 60b3e0 <dirPhaseB3.2491>
  4010b1:	48 39 d1             	cmp    %rdx,%rcx
  4010b4:	76 0b                	jbe    4010c1 <t_run_test+0x411>
  4010b6:	48 8b 35 53 b5 20 00 	mov    0x20b553(%rip),%rsi        # 60c610 <RAMfile>
  4010bd:	48 8d 0c 06          	lea    (%rsi,%rax,1),%rcx
  4010c1:	48 89 3e             	mov    %rdi,(%rsi)
  4010c4:	48 8d 34 01          	lea    (%rcx,%rax,1),%rsi
  4010c8:	48 39 d6             	cmp    %rdx,%rsi
  4010cb:	76 0b                	jbe    4010d8 <t_run_test+0x428>
  4010cd:	48 8b 0d 3c b5 20 00 	mov    0x20b53c(%rip),%rcx        # 60c610 <RAMfile>
  4010d4:	48 8d 34 01          	lea    (%rcx,%rax,1),%rsi
  4010d8:	4c 89 01             	mov    %r8,(%rcx)
  4010db:	48 8d 0c 06          	lea    (%rsi,%rax,1),%rcx
  4010df:	48 39 d1             	cmp    %rdx,%rcx
  4010e2:	76 0b                	jbe    4010ef <t_run_test+0x43f>
  4010e4:	48 8b 35 25 b5 20 00 	mov    0x20b525(%rip),%rsi        # 60c610 <RAMfile>
  4010eb:	48 8d 0c 06          	lea    (%rsi,%rax,1),%rcx
  4010ef:	48 89 2e             	mov    %rbp,(%rsi)
  4010f2:	48 8d 34 01          	lea    (%rcx,%rax,1),%rsi
  4010f6:	48 39 d6             	cmp    %rdx,%rsi
  4010f9:	76 0b                	jbe    401106 <t_run_test+0x456>
  4010fb:	48 8b 0d 0e b5 20 00 	mov    0x20b50e(%rip),%rcx        # 60c610 <RAMfile>
  401102:	48 8d 34 01          	lea    (%rcx,%rax,1),%rsi
  401106:	48 83 c5 01          	add    $0x1,%rbp
  40110a:	48 c7 01 aa aa 00 00 	movq   $0xaaaa,(%rcx)
  401111:	48 89 35 e8 b4 20 00 	mov    %rsi,0x20b4e8(%rip)        # 60c600 <RAMfilePtr>
  401118:	48 39 dd             	cmp    %rbx,%rbp
  40111b:	0f 84 8f 07 00 00    	je     4018b0 <t_run_test+0xc00>
  401121:	8b 05 d9 a2 20 00    	mov    0x20a2d9(%rip),%eax        # 60b400 <pwmCounter1.2501>
  401127:	44 8d 60 01          	lea    0x1(%rax),%r12d
  40112b:	41 83 fc 15          	cmp    $0x15,%r12d
  40112f:	0f 84 ab 04 00 00    	je     4015e0 <t_run_test+0x930>
  401135:	44 3b 25 88 a2 20 00 	cmp    0x20a288(%rip),%r12d        # 60b3c4 <pwmPhaseA1.2504>
  40113c:	44 89 25 bd a2 20 00 	mov    %r12d,0x20a2bd(%rip)        # 60b400 <pwmCounter1.2501>
  401143:	0f 84 6f 04 00 00    	je     4015b8 <t_run_test+0x908>
  401149:	44 39 25 68 a2 20 00 	cmp    %r12d,0x20a268(%rip)        # 60b3b8 <pwmPhaseB1.2507>
  401150:	0f 84 42 04 00 00    	je     401598 <t_run_test+0x8e8>
  401156:	45 85 e4             	test   %r12d,%r12d
  401159:	0f 85 71 fd ff ff    	jne    400ed0 <t_run_test+0x220>
  40115f:	e8 ec fa ff ff       	callq  400c50 <GetInputValues>
  401164:	48 8b 15 9d b4 20 00 	mov    0x20b49d(%rip),%rdx        # 60c608 <commandPos>
  40116b:	48 8b 05 06 a2 20 00 	mov    0x20a206(%rip),%rax        # 60b378 <internalPos1.2498>
  401172:	48 39 c2             	cmp    %rax,%rdx
  401175:	0f 8e 25 05 00 00    	jle    4016a0 <t_run_test+0x9f0>
  40117b:	c7 05 27 a2 20 00 01 	movl   $0x1,0x20a227(%rip)        # 60b3ac <upDirection1.2474>
  401182:	00 00 00 
  401185:	41 bc 01 00 00 00    	mov    $0x1,%r12d
  40118b:	44 39 25 0e a2 20 00 	cmp    %r12d,0x20a20e(%rip)        # 60b3a0 <lastDirection1.2477>
  401192:	74 26                	je     4011ba <t_run_test+0x50a>
  401194:	8b 35 fa a1 20 00    	mov    0x20a1fa(%rip),%esi        # 60b394 <incrementA1.2492>
  40119a:	8b 3d e8 a1 20 00    	mov    0x20a1e8(%rip),%edi        # 60b388 <incrementB1.2495>
  4011a0:	31 c9                	xor    %ecx,%ecx
  4011a2:	85 f6                	test   %esi,%esi
  4011a4:	0f 94 c1             	sete   %cl
  4011a7:	89 0d e7 a1 20 00    	mov    %ecx,0x20a1e7(%rip)        # 60b394 <incrementA1.2492>
  4011ad:	31 c9                	xor    %ecx,%ecx
  4011af:	85 ff                	test   %edi,%edi
  4011b1:	0f 94 c1             	sete   %cl
  4011b4:	89 0d ce a1 20 00    	mov    %ecx,0x20a1ce(%rip)        # 60b388 <incrementB1.2495>
  4011ba:	48 39 c2             	cmp    %rax,%rdx
  4011bd:	44 89 25 dc a1 20 00 	mov    %r12d,0x20a1dc(%rip)        # 60b3a0 <lastDirection1.2477>
  4011c4:	0f 84 82 07 00 00    	je     40194c <t_run_test+0xc9c>
  4011ca:	44 8b 1d c3 a1 20 00 	mov    0x20a1c3(%rip),%r11d        # 60b394 <incrementA1.2492>
  4011d1:	8b 15 ed a1 20 00    	mov    0x20a1ed(%rip),%edx        # 60b3c4 <pwmPhaseA1.2504>
  4011d7:	45 85 db             	test   %r11d,%r11d
  4011da:	0f 84 20 05 00 00    	je     401700 <t_run_test+0xa50>
  4011e0:	8d 4a 01             	lea    0x1(%rdx),%ecx
  4011e3:	83 f9 15             	cmp    $0x15,%ecx
  4011e6:	0f 84 62 08 00 00    	je     401a4e <t_run_test+0xd9e>
  4011ec:	85 c9                	test   %ecx,%ecx
  4011ee:	89 0d d0 a1 20 00    	mov    %ecx,0x20a1d0(%rip)        # 60b3c4 <pwmPhaseA1.2504>
  4011f4:	0f 88 17 05 00 00    	js     401711 <t_run_test+0xa61>
  4011fa:	44 8b 0d 87 a1 20 00 	mov    0x20a187(%rip),%r9d        # 60b388 <incrementB1.2495>
  401201:	8b 15 b1 a1 20 00    	mov    0x20a1b1(%rip),%edx        # 60b3b8 <pwmPhaseB1.2507>
  401207:	45 85 c9             	test   %r9d,%r9d
  40120a:	0f 84 30 05 00 00    	je     401740 <t_run_test+0xa90>
  401210:	83 c2 01             	add    $0x1,%edx
  401213:	83 fa 15             	cmp    $0x15,%edx
  401216:	0f 84 14 08 00 00    	je     401a30 <t_run_test+0xd80>
  40121c:	85 d2                	test   %edx,%edx
  40121e:	89 15 94 a1 20 00    	mov    %edx,0x20a194(%rip)        # 60b3b8 <pwmPhaseB1.2507>
  401224:	0f 88 27 05 00 00    	js     401751 <t_run_test+0xaa1>
  40122a:	85 c9                	test   %ecx,%ecx
  40122c:	75 13                	jne    401241 <t_run_test+0x591>
  40122e:	31 f6                	xor    %esi,%esi
  401230:	83 3d bd a1 20 00 01 	cmpl   $0x1,0x20a1bd(%rip)        # 60b3f4 <dirPhaseA1.2483>
  401237:	40 0f 95 c6          	setne  %sil
  40123b:	89 35 b3 a1 20 00    	mov    %esi,0x20a1b3(%rip)        # 60b3f4 <dirPhaseA1.2483>
  401241:	85 d2                	test   %edx,%edx
  401243:	75 13                	jne    401258 <t_run_test+0x5a8>
  401245:	31 f6                	xor    %esi,%esi
  401247:	83 3d 9a a1 20 00 01 	cmpl   $0x1,0x20a19a(%rip)        # 60b3e8 <dirPhaseB1.2489>
  40124e:	40 0f 95 c6          	setne  %sil
  401252:	89 35 90 a1 20 00    	mov    %esi,0x20a190(%rip)        # 60b3e8 <dirPhaseB1.2489>
  401258:	45 85 e4             	test   %r12d,%r12d
  40125b:	0f 84 87 04 00 00    	je     4016e8 <t_run_test+0xa38>
  401261:	48 83 c0 01          	add    $0x1,%rax
  401265:	48 89 05 0c a1 20 00 	mov    %rax,0x20a10c(%rip)        # 60b378 <internalPos1.2498>
  40126c:	85 c9                	test   %ecx,%ecx
  40126e:	7e 0a                	jle    40127a <t_run_test+0x5ca>
  401270:	c7 05 62 a1 20 00 01 	movl   $0x1,0x20a162(%rip)        # 60b3dc <enbPhaseA1.2480>
  401277:	00 00 00 
  40127a:	85 d2                	test   %edx,%edx
  40127c:	0f 8e 4e fc ff ff    	jle    400ed0 <t_run_test+0x220>
  401282:	c7 05 44 a1 20 00 01 	movl   $0x1,0x20a144(%rip)        # 60b3d0 <enbPhaseB1.2486>
  401289:	00 00 00 
  40128c:	41 b8 01 00 00 00    	mov    $0x1,%r8d
  401292:	e9 40 fc ff ff       	jmpq   400ed7 <t_run_test+0x227>
  401297:	66 0f 1f 84 00 00 00 	nopw   0x0(%rax,%rax,1)
  40129e:	00 00 
  4012a0:	e8 ab f9 ff ff       	callq  400c50 <GetInputValues>
  4012a5:	48 8b 15 5c b3 20 00 	mov    0x20b35c(%rip),%rdx        # 60c608 <commandPos>
  4012ac:	48 8b 05 bd a0 20 00 	mov    0x20a0bd(%rip),%rax        # 60b370 <internalPos2.2499>
  4012b3:	48 39 c2             	cmp    %rax,%rdx
  4012b6:	0f 8e 14 04 00 00    	jle    4016d0 <t_run_test+0xa20>
  4012bc:	c7 05 e2 a0 20 00 01 	movl   $0x1,0x20a0e2(%rip)        # 60b3a8 <upDirection2.2475>
  4012c3:	00 00 00 
  4012c6:	41 bc 01 00 00 00    	mov    $0x1,%r12d
  4012cc:	44 39 25 c9 a0 20 00 	cmp    %r12d,0x20a0c9(%rip)        # 60b39c <lastDirection2.2478>
  4012d3:	74 28                	je     4012fd <t_run_test+0x64d>
  4012d5:	44 8b 1d b4 a0 20 00 	mov    0x20a0b4(%rip),%r11d        # 60b390 <incrementA2.2493>
  4012dc:	8b 35 a2 a0 20 00    	mov    0x20a0a2(%rip),%esi        # 60b384 <incrementB2.2496>
  4012e2:	31 c9                	xor    %ecx,%ecx
  4012e4:	45 85 db             	test   %r11d,%r11d
  4012e7:	0f 94 c1             	sete   %cl
  4012ea:	89 0d a0 a0 20 00    	mov    %ecx,0x20a0a0(%rip)        # 60b390 <incrementA2.2493>
  4012f0:	31 c9                	xor    %ecx,%ecx
  4012f2:	85 f6                	test   %esi,%esi
  4012f4:	0f 94 c1             	sete   %cl
  4012f7:	89 0d 87 a0 20 00    	mov    %ecx,0x20a087(%rip)        # 60b384 <incrementB2.2496>
  4012fd:	48 39 c2             	cmp    %rax,%rdx
  401300:	44 89 25 95 a0 20 00 	mov    %r12d,0x20a095(%rip)        # 60b39c <lastDirection2.2478>
  401307:	0f 84 2e 06 00 00    	je     40193b <t_run_test+0xc8b>
  40130d:	44 8b 15 7c a0 20 00 	mov    0x20a07c(%rip),%r10d        # 60b390 <incrementA2.2493>
  401314:	8b 15 a6 a0 20 00    	mov    0x20a0a6(%rip),%edx        # 60b3c0 <pwmPhaseA2.2505>
  40131a:	45 85 d2             	test   %r10d,%r10d
  40131d:	0f 84 9d 04 00 00    	je     4017c0 <t_run_test+0xb10>
  401323:	8d 4a 01             	lea    0x1(%rdx),%ecx
  401326:	83 f9 15             	cmp    $0x15,%ecx
  401329:	0f 84 e3 06 00 00    	je     401a12 <t_run_test+0xd62>
  40132f:	85 c9                	test   %ecx,%ecx
  401331:	89 0d 89 a0 20 00    	mov    %ecx,0x20a089(%rip)        # 60b3c0 <pwmPhaseA2.2505>
  401337:	0f 88 94 04 00 00    	js     4017d1 <t_run_test+0xb21>
  40133d:	44 8b 05 40 a0 20 00 	mov    0x20a040(%rip),%r8d        # 60b384 <incrementB2.2496>
  401344:	8b 15 6a a0 20 00    	mov    0x20a06a(%rip),%edx        # 60b3b4 <pwmPhaseB2.2508>
  40134a:	45 85 c0             	test   %r8d,%r8d
  40134d:	0f 84 2d 04 00 00    	je     401780 <t_run_test+0xad0>
  401353:	83 c2 01             	add    $0x1,%edx
  401356:	83 fa 15             	cmp    $0x15,%edx
  401359:	0f 84 95 06 00 00    	je     4019f4 <t_run_test+0xd44>
  40135f:	85 d2                	test   %edx,%edx
  401361:	89 15 4d a0 20 00    	mov    %edx,0x20a04d(%rip)        # 60b3b4 <pwmPhaseB2.2508>
  401367:	0f 88 24 04 00 00    	js     401791 <t_run_test+0xae1>
  40136d:	85 c9                	test   %ecx,%ecx
  40136f:	75 13                	jne    401384 <t_run_test+0x6d4>
  401371:	31 f6                	xor    %esi,%esi
  401373:	83 3d 76 a0 20 00 01 	cmpl   $0x1,0x20a076(%rip)        # 60b3f0 <dirPhaseA2.2484>
  40137a:	40 0f 95 c6          	setne  %sil
  40137e:	89 35 6c a0 20 00    	mov    %esi,0x20a06c(%rip)        # 60b3f0 <dirPhaseA2.2484>
  401384:	85 d2                	test   %edx,%edx
  401386:	75 13                	jne    40139b <t_run_test+0x6eb>
  401388:	31 f6                	xor    %esi,%esi
  40138a:	83 3d 53 a0 20 00 01 	cmpl   $0x1,0x20a053(%rip)        # 60b3e4 <dirPhaseB2.2490>
  401391:	40 0f 95 c6          	setne  %sil
  401395:	89 35 49 a0 20 00    	mov    %esi,0x20a049(%rip)        # 60b3e4 <dirPhaseB2.2490>
  40139b:	45 85 e4             	test   %r12d,%r12d
  40139e:	0f 84 5c 04 00 00    	je     401800 <t_run_test+0xb50>
  4013a4:	48 83 c0 01          	add    $0x1,%rax
  4013a8:	48 89 05 c1 9f 20 00 	mov    %rax,0x209fc1(%rip)        # 60b370 <internalPos2.2499>
  4013af:	85 c9                	test   %ecx,%ecx
  4013b1:	7e 0a                	jle    4013bd <t_run_test+0x70d>
  4013b3:	c7 05 1b a0 20 00 01 	movl   $0x1,0x20a01b(%rip)        # 60b3d8 <enbPhaseA2.2481>
  4013ba:	00 00 00 
  4013bd:	85 d2                	test   %edx,%edx
  4013bf:	0f 8e a9 05 00 00    	jle    40196e <t_run_test+0xcbe>
  4013c5:	48 63 05 4c b2 20 00 	movslq 0x20b24c(%rip),%rax        # 60c618 <RAMfile_increment>
  4013cc:	c7 05 f6 9f 20 00 01 	movl   $0x1,0x209ff6(%rip)        # 60b3cc <enbPhaseB2.2487>
  4013d3:	00 00 00 
  4013d6:	41 b8 01 00 00 00    	mov    $0x1,%r8d
  4013dc:	48 8b 0d 1d b2 20 00 	mov    0x20b21d(%rip),%rcx        # 60c600 <RAMfilePtr>
  4013e3:	48 8b 15 0e b2 20 00 	mov    0x20b20e(%rip),%rdx        # 60c5f8 <RAMfileEOF>
  4013ea:	48 c1 e0 02          	shl    $0x2,%rax
  4013ee:	e9 ba fb ff ff       	jmpq   400fad <t_run_test+0x2fd>
  4013f3:	0f 1f 44 00 00       	nopl   0x0(%rax,%rax,1)
  4013f8:	e8 53 f8 ff ff       	callq  400c50 <GetInputValues>
  4013fd:	48 8b 15 04 b2 20 00 	mov    0x20b204(%rip),%rdx        # 60c608 <commandPos>
  401404:	48 8b 05 5d 9f 20 00 	mov    0x209f5d(%rip),%rax        # 60b368 <internalPos3.2500>
  40140b:	48 39 c2             	cmp    %rax,%rdx
  40140e:	0f 8e a4 02 00 00    	jle    4016b8 <t_run_test+0xa08>
  401414:	c7 05 86 9f 20 00 01 	movl   $0x1,0x209f86(%rip)        # 60b3a4 <upDirection3.2476>
  40141b:	00 00 00 
  40141e:	41 bc 01 00 00 00    	mov    $0x1,%r12d
  401424:	44 39 25 6d 9f 20 00 	cmp    %r12d,0x209f6d(%rip)        # 60b398 <lastDirection3.2479>
  40142b:	74 2a                	je     401457 <t_run_test+0x7a7>
  40142d:	44 8b 15 58 9f 20 00 	mov    0x209f58(%rip),%r10d        # 60b38c <incrementA3.2494>
  401434:	44 8b 1d 45 9f 20 00 	mov    0x209f45(%rip),%r11d        # 60b380 <incrementB3.2497>
  40143b:	31 c9                	xor    %ecx,%ecx
  40143d:	45 85 d2             	test   %r10d,%r10d
  401440:	0f 94 c1             	sete   %cl
  401443:	89 0d 43 9f 20 00    	mov    %ecx,0x209f43(%rip)        # 60b38c <incrementA3.2494>
  401449:	31 c9                	xor    %ecx,%ecx
  40144b:	45 85 db             	test   %r11d,%r11d
  40144e:	0f 94 c1             	sete   %cl
  401451:	89 0d 29 9f 20 00    	mov    %ecx,0x209f29(%rip)        # 60b380 <incrementB3.2497>
  401457:	48 39 c2             	cmp    %rax,%rdx
  40145a:	44 89 25 37 9f 20 00 	mov    %r12d,0x209f37(%rip)        # 60b398 <lastDirection3.2479>
  401461:	0f 84 f6 04 00 00    	je     40195d <t_run_test+0xcad>
  401467:	44 8b 0d 1e 9f 20 00 	mov    0x209f1e(%rip),%r9d        # 60b38c <incrementA3.2494>
  40146e:	8b 15 48 9f 20 00    	mov    0x209f48(%rip),%edx        # 60b3bc <pwmPhaseA3.2506>
  401474:	45 85 c9             	test   %r9d,%r9d
  401477:	0f 84 93 03 00 00    	je     401810 <t_run_test+0xb60>
  40147d:	8d 4a 01             	lea    0x1(%rdx),%ecx
  401480:	83 f9 15             	cmp    $0x15,%ecx
  401483:	0f 84 4d 05 00 00    	je     4019d6 <t_run_test+0xd26>
  401489:	85 c9                	test   %ecx,%ecx
  40148b:	89 0d 2b 9f 20 00    	mov    %ecx,0x209f2b(%rip)        # 60b3bc <pwmPhaseA3.2506>
  401491:	0f 88 8a 03 00 00    	js     401821 <t_run_test+0xb71>
  401497:	8b 3d e3 9e 20 00    	mov    0x209ee3(%rip),%edi        # 60b380 <incrementB3.2497>
  40149d:	8b 15 0d 9f 20 00    	mov    0x209f0d(%rip),%edx        # 60b3b0 <pwmPhaseB3.2509>
  4014a3:	85 ff                	test   %edi,%edi
  4014a5:	0f 84 b5 03 00 00    	je     401860 <t_run_test+0xbb0>
  4014ab:	83 c2 01             	add    $0x1,%edx
  4014ae:	83 fa 15             	cmp    $0x15,%edx
  4014b1:	0f 84 01 05 00 00    	je     4019b8 <t_run_test+0xd08>
  4014b7:	85 d2                	test   %edx,%edx
  4014b9:	89 15 f1 9e 20 00    	mov    %edx,0x209ef1(%rip)        # 60b3b0 <pwmPhaseB3.2509>
  4014bf:	0f 88 ac 03 00 00    	js     401871 <t_run_test+0xbc1>
  4014c5:	85 c9                	test   %ecx,%ecx
  4014c7:	75 13                	jne    4014dc <t_run_test+0x82c>
  4014c9:	31 f6                	xor    %esi,%esi
  4014cb:	83 3d 1a 9f 20 00 01 	cmpl   $0x1,0x209f1a(%rip)        # 60b3ec <dirPhaseA3.2485>
  4014d2:	40 0f 95 c6          	setne  %sil
  4014d6:	89 35 10 9f 20 00    	mov    %esi,0x209f10(%rip)        # 60b3ec <dirPhaseA3.2485>
  4014dc:	85 d2                	test   %edx,%edx
  4014de:	75 13                	jne    4014f3 <t_run_test+0x843>
  4014e0:	31 f6                	xor    %esi,%esi
  4014e2:	83 3d f7 9e 20 00 01 	cmpl   $0x1,0x209ef7(%rip)        # 60b3e0 <dirPhaseB3.2491>
  4014e9:	40 0f 95 c6          	setne  %sil
  4014ed:	89 35 ed 9e 20 00    	mov    %esi,0x209eed(%rip)        # 60b3e0 <dirPhaseB3.2491>
  4014f3:	45 85 e4             	test   %r12d,%r12d
  4014f6:	0f 84 a4 03 00 00    	je     4018a0 <t_run_test+0xbf0>
  4014fc:	48 83 c0 01          	add    $0x1,%rax
  401500:	48 89 05 61 9e 20 00 	mov    %rax,0x209e61(%rip)        # 60b368 <internalPos3.2500>
  401507:	85 c9                	test   %ecx,%ecx
  401509:	7e 0a                	jle    401515 <t_run_test+0x865>
  40150b:	c7 05 bf 9e 20 00 01 	movl   $0x1,0x209ebf(%rip)        # 60b3d4 <enbPhaseA3.2482>
  401512:	00 00 00 
  401515:	85 d2                	test   %edx,%edx
  401517:	0f 8e 76 04 00 00    	jle    401993 <t_run_test+0xce3>
  40151d:	48 63 05 f4 b0 20 00 	movslq 0x20b0f4(%rip),%rax        # 60c618 <RAMfile_increment>
  401524:	c7 05 9a 9e 20 00 01 	movl   $0x1,0x209e9a(%rip)        # 60b3c8 <enbPhaseB3.2488>
  40152b:	00 00 00 
  40152e:	41 b8 01 00 00 00    	mov    $0x1,%r8d
  401534:	48 8b 0d c5 b0 20 00 	mov    0x20b0c5(%rip),%rcx        # 60c600 <RAMfilePtr>
  40153b:	48 8b 15 b6 b0 20 00 	mov    0x20b0b6(%rip),%rdx        # 60c5f8 <RAMfileEOF>
  401542:	48 c1 e0 02          	shl    $0x2,%rax
  401546:	e9 1f fb ff ff       	jmpq   40106a <t_run_test+0x3ba>
  40154b:	0f 1f 44 00 00       	nopl   0x0(%rax,%rax,1)
  401550:	8b 35 66 9e 20 00    	mov    0x209e66(%rip),%esi        # 60b3bc <pwmPhaseA3.2506>
  401556:	45 31 e4             	xor    %r12d,%r12d
  401559:	c7 05 95 9e 20 00 00 	movl   $0x0,0x209e95(%rip)        # 60b3f8 <pwmCounter3.2503>
  401560:	00 00 00 
  401563:	85 f6                	test   %esi,%esi
  401565:	0f 85 e2 fa ff ff    	jne    40104d <t_run_test+0x39d>
  40156b:	44 39 25 3e 9e 20 00 	cmp    %r12d,0x209e3e(%rip)        # 60b3b0 <pwmPhaseB3.2509>
  401572:	c7 05 58 9e 20 00 00 	movl   $0x0,0x209e58(%rip)        # 60b3d4 <enbPhaseA3.2482>
  401579:	00 00 00 
  40157c:	0f 85 d8 fa ff ff    	jne    40105a <t_run_test+0x3aa>
  401582:	c7 05 3c 9e 20 00 00 	movl   $0x0,0x209e3c(%rip)        # 60b3c8 <enbPhaseB3.2488>
  401589:	00 00 00 
  40158c:	e9 c9 fa ff ff       	jmpq   40105a <t_run_test+0x3aa>
  401591:	0f 1f 80 00 00 00 00 	nopl   0x0(%rax)
  401598:	41 83 fc 13          	cmp    $0x13,%r12d
  40159c:	0f 8f b4 fb ff ff    	jg     401156 <t_run_test+0x4a6>
  4015a2:	c7 05 24 9e 20 00 00 	movl   $0x0,0x209e24(%rip)        # 60b3d0 <enbPhaseB1.2486>
  4015a9:	00 00 00 
  4015ac:	e9 a5 fb ff ff       	jmpq   401156 <t_run_test+0x4a6>
  4015b1:	0f 1f 80 00 00 00 00 	nopl   0x0(%rax)
  4015b8:	41 83 fc 13          	cmp    $0x13,%r12d
  4015bc:	0f 8f 94 fb ff ff    	jg     401156 <t_run_test+0x4a6>
  4015c2:	44 39 25 ef 9d 20 00 	cmp    %r12d,0x209def(%rip)        # 60b3b8 <pwmPhaseB1.2507>
  4015c9:	c7 05 09 9e 20 00 00 	movl   $0x0,0x209e09(%rip)        # 60b3dc <enbPhaseA1.2480>
  4015d0:	00 00 00 
  4015d3:	0f 85 7d fb ff ff    	jne    401156 <t_run_test+0x4a6>
  4015d9:	eb c7                	jmp    4015a2 <t_run_test+0x8f2>
  4015db:	0f 1f 44 00 00       	nopl   0x0(%rax,%rax,1)
  4015e0:	44 8b 05 dd 9d 20 00 	mov    0x209ddd(%rip),%r8d        # 60b3c4 <pwmPhaseA1.2504>
  4015e7:	45 31 e4             	xor    %r12d,%r12d
  4015ea:	c7 05 0c 9e 20 00 00 	movl   $0x0,0x209e0c(%rip)        # 60b400 <pwmCounter1.2501>
  4015f1:	00 00 00 
  4015f4:	45 85 c0             	test   %r8d,%r8d
  4015f7:	0f 85 4c fb ff ff    	jne    401149 <t_run_test+0x499>
  4015fd:	eb c3                	jmp    4015c2 <t_run_test+0x912>
  4015ff:	90                   	nop
  401600:	41 83 fc 13          	cmp    $0x13,%r12d
  401604:	0f 8f 93 f9 ff ff    	jg     400f9d <t_run_test+0x2ed>
  40160a:	c7 05 b8 9d 20 00 00 	movl   $0x0,0x209db8(%rip)        # 60b3cc <enbPhaseB2.2487>
  401611:	00 00 00 
  401614:	e9 84 f9 ff ff       	jmpq   400f9d <t_run_test+0x2ed>
  401619:	0f 1f 80 00 00 00 00 	nopl   0x0(%rax)
  401620:	41 83 fc 13          	cmp    $0x13,%r12d
  401624:	0f 8f 73 f9 ff ff    	jg     400f9d <t_run_test+0x2ed>
  40162a:	44 39 25 83 9d 20 00 	cmp    %r12d,0x209d83(%rip)        # 60b3b4 <pwmPhaseB2.2508>
  401631:	c7 05 9d 9d 20 00 00 	movl   $0x0,0x209d9d(%rip)        # 60b3d8 <enbPhaseA2.2481>
  401638:	00 00 00 
  40163b:	0f 85 5c f9 ff ff    	jne    400f9d <t_run_test+0x2ed>
  401641:	eb c7                	jmp    40160a <t_run_test+0x95a>
  401643:	0f 1f 44 00 00       	nopl   0x0(%rax,%rax,1)
  401648:	8b 3d 72 9d 20 00    	mov    0x209d72(%rip),%edi        # 60b3c0 <pwmPhaseA2.2505>
  40164e:	45 31 e4             	xor    %r12d,%r12d
  401651:	c7 05 a1 9d 20 00 00 	movl   $0x0,0x209da1(%rip)        # 60b3fc <pwmCounter2.2502>
  401658:	00 00 00 
  40165b:	85 ff                	test   %edi,%edi
  40165d:	0f 85 2d f9 ff ff    	jne    400f90 <t_run_test+0x2e0>
  401663:	eb c5                	jmp    40162a <t_run_test+0x97a>
  401665:	0f 1f 00             	nopl   (%rax)
  401668:	41 83 fc 13          	cmp    $0x13,%r12d
  40166c:	0f 8f e8 f9 ff ff    	jg     40105a <t_run_test+0x3aa>
  401672:	c7 05 4c 9d 20 00 00 	movl   $0x0,0x209d4c(%rip)        # 60b3c8 <enbPhaseB3.2488>
  401679:	00 00 00 
  40167c:	e9 d9 f9 ff ff       	jmpq   40105a <t_run_test+0x3aa>
  401681:	0f 1f 80 00 00 00 00 	nopl   0x0(%rax)
  401688:	41 83 fc 13          	cmp    $0x13,%r12d
  40168c:	0f 8f c8 f9 ff ff    	jg     40105a <t_run_test+0x3aa>
  401692:	e9 d4 fe ff ff       	jmpq   40156b <t_run_test+0x8bb>
  401697:	66 0f 1f 84 00 00 00 	nopw   0x0(%rax,%rax,1)
  40169e:	00 00 
  4016a0:	0f 8d 09 04 00 00    	jge    401aaf <t_run_test+0xdff>
  4016a6:	c7 05 fc 9c 20 00 00 	movl   $0x0,0x209cfc(%rip)        # 60b3ac <upDirection1.2474>
  4016ad:	00 00 00 
  4016b0:	e9 d6 fa ff ff       	jmpq   40118b <t_run_test+0x4db>
  4016b5:	0f 1f 00             	nopl   (%rax)
  4016b8:	0f 8d 09 04 00 00    	jge    401ac7 <t_run_test+0xe17>
  4016be:	c7 05 dc 9c 20 00 00 	movl   $0x0,0x209cdc(%rip)        # 60b3a4 <upDirection3.2476>
  4016c5:	00 00 00 
  4016c8:	e9 57 fd ff ff       	jmpq   401424 <t_run_test+0x774>
  4016cd:	0f 1f 00             	nopl   (%rax)
  4016d0:	0f 8d e5 03 00 00    	jge    401abb <t_run_test+0xe0b>
  4016d6:	c7 05 c8 9c 20 00 00 	movl   $0x0,0x209cc8(%rip)        # 60b3a8 <upDirection2.2475>
  4016dd:	00 00 00 
  4016e0:	e9 e7 fb ff ff       	jmpq   4012cc <t_run_test+0x61c>
  4016e5:	0f 1f 00             	nopl   (%rax)
  4016e8:	48 83 e8 01          	sub    $0x1,%rax
  4016ec:	48 89 05 85 9c 20 00 	mov    %rax,0x209c85(%rip)        # 60b378 <internalPos1.2498>
  4016f3:	e9 74 fb ff ff       	jmpq   40126c <t_run_test+0x5bc>
  4016f8:	0f 1f 84 00 00 00 00 	nopl   0x0(%rax,%rax,1)
  4016ff:	00 
  401700:	8d 4a ff             	lea    -0x1(%rdx),%ecx
  401703:	85 c9                	test   %ecx,%ecx
  401705:	89 0d b9 9c 20 00    	mov    %ecx,0x209cb9(%rip)        # 60b3c4 <pwmPhaseA1.2504>
  40170b:	0f 89 e9 fa ff ff    	jns    4011fa <t_run_test+0x54a>
  401711:	44 8b 15 7c 9c 20 00 	mov    0x209c7c(%rip),%r10d        # 60b394 <incrementA1.2492>
  401718:	45 85 d2             	test   %r10d,%r10d
  40171b:	0f 85 d9 fa ff ff    	jne    4011fa <t_run_test+0x54a>
  401721:	c7 05 99 9c 20 00 01 	movl   $0x1,0x209c99(%rip)        # 60b3c4 <pwmPhaseA1.2504>
  401728:	00 00 00 
  40172b:	c7 05 5f 9c 20 00 01 	movl   $0x1,0x209c5f(%rip)        # 60b394 <incrementA1.2492>
  401732:	00 00 00 
  401735:	b9 01 00 00 00       	mov    $0x1,%ecx
  40173a:	e9 bb fa ff ff       	jmpq   4011fa <t_run_test+0x54a>
  40173f:	90                   	nop
  401740:	83 ea 01             	sub    $0x1,%edx
  401743:	85 d2                	test   %edx,%edx
  401745:	89 15 6d 9c 20 00    	mov    %edx,0x209c6d(%rip)        # 60b3b8 <pwmPhaseB1.2507>
  40174b:	0f 89 d9 fa ff ff    	jns    40122a <t_run_test+0x57a>
  401751:	44 8b 05 30 9c 20 00 	mov    0x209c30(%rip),%r8d        # 60b388 <incrementB1.2495>
  401758:	45 85 c0             	test   %r8d,%r8d
  40175b:	0f 85 c9 fa ff ff    	jne    40122a <t_run_test+0x57a>
  401761:	c7 05 4d 9c 20 00 01 	movl   $0x1,0x209c4d(%rip)        # 60b3b8 <pwmPhaseB1.2507>
  401768:	00 00 00 
  40176b:	c7 05 13 9c 20 00 01 	movl   $0x1,0x209c13(%rip)        # 60b388 <incrementB1.2495>
  401772:	00 00 00 
  401775:	ba 01 00 00 00       	mov    $0x1,%edx
  40177a:	e9 ab fa ff ff       	jmpq   40122a <t_run_test+0x57a>
  40177f:	90                   	nop
  401780:	83 ea 01             	sub    $0x1,%edx
  401783:	85 d2                	test   %edx,%edx
  401785:	89 15 29 9c 20 00    	mov    %edx,0x209c29(%rip)        # 60b3b4 <pwmPhaseB2.2508>
  40178b:	0f 89 dc fb ff ff    	jns    40136d <t_run_test+0x6bd>
  401791:	8b 3d ed 9b 20 00    	mov    0x209bed(%rip),%edi        # 60b384 <incrementB2.2496>
  401797:	85 ff                	test   %edi,%edi
  401799:	0f 85 ce fb ff ff    	jne    40136d <t_run_test+0x6bd>
  40179f:	c7 05 0b 9c 20 00 01 	movl   $0x1,0x209c0b(%rip)        # 60b3b4 <pwmPhaseB2.2508>
  4017a6:	00 00 00 
  4017a9:	c7 05 d1 9b 20 00 01 	movl   $0x1,0x209bd1(%rip)        # 60b384 <incrementB2.2496>
  4017b0:	00 00 00 
  4017b3:	ba 01 00 00 00       	mov    $0x1,%edx
  4017b8:	e9 b0 fb ff ff       	jmpq   40136d <t_run_test+0x6bd>
  4017bd:	0f 1f 00             	nopl   (%rax)
  4017c0:	8d 4a ff             	lea    -0x1(%rdx),%ecx
  4017c3:	85 c9                	test   %ecx,%ecx
  4017c5:	89 0d f5 9b 20 00    	mov    %ecx,0x209bf5(%rip)        # 60b3c0 <pwmPhaseA2.2505>
  4017cb:	0f 89 6c fb ff ff    	jns    40133d <t_run_test+0x68d>
  4017d1:	44 8b 0d b8 9b 20 00 	mov    0x209bb8(%rip),%r9d        # 60b390 <incrementA2.2493>
  4017d8:	45 85 c9             	test   %r9d,%r9d
  4017db:	0f 85 5c fb ff ff    	jne    40133d <t_run_test+0x68d>
  4017e1:	c7 05 d5 9b 20 00 01 	movl   $0x1,0x209bd5(%rip)        # 60b3c0 <pwmPhaseA2.2505>
  4017e8:	00 00 00 
  4017eb:	c7 05 9b 9b 20 00 01 	movl   $0x1,0x209b9b(%rip)        # 60b390 <incrementA2.2493>
  4017f2:	00 00 00 
  4017f5:	b9 01 00 00 00       	mov    $0x1,%ecx
  4017fa:	e9 3e fb ff ff       	jmpq   40133d <t_run_test+0x68d>
  4017ff:	90                   	nop
  401800:	48 83 e8 01          	sub    $0x1,%rax
  401804:	48 89 05 65 9b 20 00 	mov    %rax,0x209b65(%rip)        # 60b370 <internalPos2.2499>
  40180b:	e9 9f fb ff ff       	jmpq   4013af <t_run_test+0x6ff>
  401810:	8d 4a ff             	lea    -0x1(%rdx),%ecx
  401813:	85 c9                	test   %ecx,%ecx
  401815:	89 0d a1 9b 20 00    	mov    %ecx,0x209ba1(%rip)        # 60b3bc <pwmPhaseA3.2506>
  40181b:	0f 89 76 fc ff ff    	jns    401497 <t_run_test+0x7e7>
  401821:	44 8b 05 64 9b 20 00 	mov    0x209b64(%rip),%r8d        # 60b38c <incrementA3.2494>
  401828:	45 85 c0             	test   %r8d,%r8d
  40182b:	0f 85 66 fc ff ff    	jne    401497 <t_run_test+0x7e7>
  401831:	8b 3d 49 9b 20 00    	mov    0x209b49(%rip),%edi        # 60b380 <incrementB3.2497>
  401837:	c7 05 7b 9b 20 00 01 	movl   $0x1,0x209b7b(%rip)        # 60b3bc <pwmPhaseA3.2506>
  40183e:	00 00 00 
  401841:	b9 01 00 00 00       	mov    $0x1,%ecx
  401846:	c7 05 3c 9b 20 00 01 	movl   $0x1,0x209b3c(%rip)        # 60b38c <incrementA3.2494>
  40184d:	00 00 00 
  401850:	8b 15 5a 9b 20 00    	mov    0x209b5a(%rip),%edx        # 60b3b0 <pwmPhaseB3.2509>
  401856:	85 ff                	test   %edi,%edi
  401858:	0f 85 4d fc ff ff    	jne    4014ab <t_run_test+0x7fb>
  40185e:	66 90                	xchg   %ax,%ax
  401860:	83 ea 01             	sub    $0x1,%edx
  401863:	85 d2                	test   %edx,%edx
  401865:	89 15 45 9b 20 00    	mov    %edx,0x209b45(%rip)        # 60b3b0 <pwmPhaseB3.2509>
  40186b:	0f 89 54 fc ff ff    	jns    4014c5 <t_run_test+0x815>
  401871:	8b 35 09 9b 20 00    	mov    0x209b09(%rip),%esi        # 60b380 <incrementB3.2497>
  401877:	85 f6                	test   %esi,%esi
  401879:	0f 85 46 fc ff ff    	jne    4014c5 <t_run_test+0x815>
  40187f:	c7 05 27 9b 20 00 01 	movl   $0x1,0x209b27(%rip)        # 60b3b0 <pwmPhaseB3.2509>
  401886:	00 00 00 
  401889:	c7 05 ed 9a 20 00 01 	movl   $0x1,0x209aed(%rip)        # 60b380 <incrementB3.2497>
  401890:	00 00 00 
  401893:	ba 01 00 00 00       	mov    $0x1,%edx
  401898:	e9 28 fc ff ff       	jmpq   4014c5 <t_run_test+0x815>
  40189d:	0f 1f 00             	nopl   (%rax)
  4018a0:	48 83 e8 01          	sub    $0x1,%rax
  4018a4:	48 89 05 bd 9a 20 00 	mov    %rax,0x209abd(%rip)        # 60b368 <internalPos3.2500>
  4018ab:	e9 57 fc ff ff       	jmpq   401507 <t_run_test+0x857>
  4018b0:	e8 eb 1a 00 00       	callq  4033a0 <th_signal_finished>
  4018b5:	48 89 44 24 08       	mov    %rax,0x8(%rsp)
  4018ba:	31 c0                	xor    %eax,%eax
  4018bc:	48 89 1c 24          	mov    %rbx,(%rsp)
  4018c0:	66 89 44 24 10       	mov    %ax,0x10(%rsp)
  4018c5:	48 c7 44 24 18 00 00 	movq   $0x0,0x18(%rsp)
  4018cc:	00 00 
  4018ce:	31 db                	xor    %ebx,%ebx
  4018d0:	48 c7 44 24 20 00 00 	movq   $0x0,0x20(%rsp)
  4018d7:	00 00 
  4018d9:	48 c7 44 24 28 00 00 	movq   $0x0,0x28(%rsp)
  4018e0:	00 00 
  4018e2:	31 c0                	xor    %eax,%eax
  4018e4:	48 c7 44 24 30 00 00 	movq   $0x0,0x30(%rsp)
  4018eb:	00 00 
  4018ed:	48 c7 44 24 38 40 b3 	movq   $0x60b340,0x38(%rsp)
  4018f4:	60 00 
  4018f6:	66 2e 0f 1f 84 00 00 	nopw   %cs:0x0(%rax,%rax,1)
  4018fd:	00 00 00 
  401900:	0f b7 f0             	movzwl %ax,%esi
  401903:	48 8b 05 de ac 20 00 	mov    0x20acde(%rip),%rax        # 60c5e8 <inpCmdPosition>
  40190a:	48 8b 3c 18          	mov    (%rax,%rbx,1),%rdi
  40190e:	48 83 c3 08          	add    $0x8,%rbx
  401912:	e8 89 04 00 00       	callq  401da0 <Calc_crc32>
  401917:	48 81 fb a0 4b 00 00 	cmp    $0x4ba0,%rbx
  40191e:	66 89 44 24 10       	mov    %ax,0x10(%rsp)
  401923:	75 db                	jne    401900 <t_run_test+0xc50>
  401925:	48 89 e7             	mov    %rsp,%rdi
  401928:	be 1d ed 00 00       	mov    $0xed1d,%esi
  40192d:	e8 1e 1b 00 00       	callq  403450 <th_report_results>
  401932:	48 83 c4 40          	add    $0x40,%rsp
  401936:	5b                   	pop    %rbx
  401937:	5d                   	pop    %rbp
  401938:	41 5c                	pop    %r12
  40193a:	c3                   	retq   
  40193b:	8b 0d 7f 9a 20 00    	mov    0x209a7f(%rip),%ecx        # 60b3c0 <pwmPhaseA2.2505>
  401941:	8b 15 6d 9a 20 00    	mov    0x209a6d(%rip),%edx        # 60b3b4 <pwmPhaseB2.2508>
  401947:	e9 63 fa ff ff       	jmpq   4013af <t_run_test+0x6ff>
  40194c:	8b 0d 72 9a 20 00    	mov    0x209a72(%rip),%ecx        # 60b3c4 <pwmPhaseA1.2504>
  401952:	8b 15 60 9a 20 00    	mov    0x209a60(%rip),%edx        # 60b3b8 <pwmPhaseB1.2507>
  401958:	e9 0f f9 ff ff       	jmpq   40126c <t_run_test+0x5bc>
  40195d:	8b 0d 59 9a 20 00    	mov    0x209a59(%rip),%ecx        # 60b3bc <pwmPhaseA3.2506>
  401963:	8b 15 47 9a 20 00    	mov    0x209a47(%rip),%edx        # 60b3b0 <pwmPhaseB3.2509>
  401969:	e9 99 fb ff ff       	jmpq   401507 <t_run_test+0x857>
  40196e:	48 63 05 a3 ac 20 00 	movslq 0x20aca3(%rip),%rax        # 60c618 <RAMfile_increment>
  401975:	4c 63 05 50 9a 20 00 	movslq 0x209a50(%rip),%r8        # 60b3cc <enbPhaseB2.2487>
  40197c:	48 8b 0d 7d ac 20 00 	mov    0x20ac7d(%rip),%rcx        # 60c600 <RAMfilePtr>
  401983:	48 8b 15 6e ac 20 00 	mov    0x20ac6e(%rip),%rdx        # 60c5f8 <RAMfileEOF>
  40198a:	48 c1 e0 02          	shl    $0x2,%rax
  40198e:	e9 1a f6 ff ff       	jmpq   400fad <t_run_test+0x2fd>
  401993:	48 63 05 7e ac 20 00 	movslq 0x20ac7e(%rip),%rax        # 60c618 <RAMfile_increment>
  40199a:	4c 63 05 27 9a 20 00 	movslq 0x209a27(%rip),%r8        # 60b3c8 <enbPhaseB3.2488>
  4019a1:	48 8b 0d 58 ac 20 00 	mov    0x20ac58(%rip),%rcx        # 60c600 <RAMfilePtr>
  4019a8:	48 8b 15 49 ac 20 00 	mov    0x20ac49(%rip),%rdx        # 60c5f8 <RAMfileEOF>
  4019af:	48 c1 e0 02          	shl    $0x2,%rax
  4019b3:	e9 b2 f6 ff ff       	jmpq   40106a <t_run_test+0x3ba>
  4019b8:	c7 05 ee 99 20 00 13 	movl   $0x13,0x2099ee(%rip)        # 60b3b0 <pwmPhaseB3.2509>
  4019bf:	00 00 00 
  4019c2:	c7 05 b4 99 20 00 00 	movl   $0x0,0x2099b4(%rip)        # 60b380 <incrementB3.2497>
  4019c9:	00 00 00 
  4019cc:	ba 13 00 00 00       	mov    $0x13,%edx
  4019d1:	e9 ef fa ff ff       	jmpq   4014c5 <t_run_test+0x815>
  4019d6:	c7 05 dc 99 20 00 13 	movl   $0x13,0x2099dc(%rip)        # 60b3bc <pwmPhaseA3.2506>
  4019dd:	00 00 00 
  4019e0:	c7 05 a2 99 20 00 00 	movl   $0x0,0x2099a2(%rip)        # 60b38c <incrementA3.2494>
  4019e7:	00 00 00 
  4019ea:	b9 13 00 00 00       	mov    $0x13,%ecx
  4019ef:	e9 a3 fa ff ff       	jmpq   401497 <t_run_test+0x7e7>
  4019f4:	c7 05 b6 99 20 00 13 	movl   $0x13,0x2099b6(%rip)        # 60b3b4 <pwmPhaseB2.2508>
  4019fb:	00 00 00 
  4019fe:	c7 05 7c 99 20 00 00 	movl   $0x0,0x20997c(%rip)        # 60b384 <incrementB2.2496>
  401a05:	00 00 00 
  401a08:	ba 13 00 00 00       	mov    $0x13,%edx
  401a0d:	e9 5b f9 ff ff       	jmpq   40136d <t_run_test+0x6bd>
  401a12:	c7 05 a4 99 20 00 13 	movl   $0x13,0x2099a4(%rip)        # 60b3c0 <pwmPhaseA2.2505>
  401a19:	00 00 00 
  401a1c:	c7 05 6a 99 20 00 00 	movl   $0x0,0x20996a(%rip)        # 60b390 <incrementA2.2493>
  401a23:	00 00 00 
  401a26:	b9 13 00 00 00       	mov    $0x13,%ecx
  401a2b:	e9 0d f9 ff ff       	jmpq   40133d <t_run_test+0x68d>
  401a30:	c7 05 7e 99 20 00 13 	movl   $0x13,0x20997e(%rip)        # 60b3b8 <pwmPhaseB1.2507>
  401a37:	00 00 00 
  401a3a:	c7 05 44 99 20 00 00 	movl   $0x0,0x209944(%rip)        # 60b388 <incrementB1.2495>
  401a41:	00 00 00 
  401a44:	ba 13 00 00 00       	mov    $0x13,%edx
  401a49:	e9 dc f7 ff ff       	jmpq   40122a <t_run_test+0x57a>
  401a4e:	c7 05 6c 99 20 00 13 	movl   $0x13,0x20996c(%rip)        # 60b3c4 <pwmPhaseA1.2504>
  401a55:	00 00 00 
  401a58:	c7 05 32 99 20 00 00 	movl   $0x0,0x209932(%rip)        # 60b394 <incrementA1.2492>
  401a5f:	00 00 00 
  401a62:	b9 13 00 00 00       	mov    $0x13,%ecx
  401a67:	e9 8e f7 ff ff       	jmpq   4011fa <t_run_test+0x54a>
  401a6c:	b9 37 01 00 00       	mov    $0x137,%ecx
  401a71:	ba c0 8f 40 00       	mov    $0x408fc0,%edx
  401a76:	be f0 8f 40 00       	mov    $0x408ff0,%esi
  401a7b:	bf 08 00 00 00       	mov    $0x8,%edi
  401a80:	e8 2b 19 00 00       	callq  4033b0 <th_exit>
  401a85:	e9 2c f4 ff ff       	jmpq   400eb6 <t_run_test+0x206>
  401a8a:	b9 1a 01 00 00       	mov    $0x11a,%ecx
  401a8f:	ba c0 8f 40 00       	mov    $0x408fc0,%edx
  401a94:	be d1 8f 40 00       	mov    $0x408fd1,%esi
  401a99:	bf 08 00 00 00       	mov    $0x8,%edi
  401a9e:	e8 0d 19 00 00       	callq  4033b0 <th_exit>
  401aa3:	48 8b 05 66 ab 20 00 	mov    0x20ab66(%rip),%rax        # 60c610 <RAMfile>
  401aaa:	e9 ba f3 ff ff       	jmpq   400e69 <t_run_test+0x1b9>
  401aaf:	44 8b 25 f6 98 20 00 	mov    0x2098f6(%rip),%r12d        # 60b3ac <upDirection1.2474>
  401ab6:	e9 d0 f6 ff ff       	jmpq   40118b <t_run_test+0x4db>
  401abb:	44 8b 25 e6 98 20 00 	mov    0x2098e6(%rip),%r12d        # 60b3a8 <upDirection2.2475>
  401ac2:	e9 05 f8 ff ff       	jmpq   4012cc <t_run_test+0x61c>
  401ac7:	44 8b 25 d6 98 20 00 	mov    0x2098d6(%rip),%r12d        # 60b3a4 <upDirection3.2476>
  401ace:	e9 51 f9 ff ff       	jmpq   401424 <t_run_test+0x774>
  401ad3:	66 66 66 66 2e 0f 1f 	data32 data32 data32 nopw %cs:0x0(%rax,%rax,1)
  401ada:	84 00 00 00 00 00 

0000000000401ae0 <WriteOut>:
  401ae0:	48 63 05 31 ab 20 00 	movslq 0x20ab31(%rip),%rax        # 60c618 <RAMfile_increment>
  401ae7:	48 8b 15 12 ab 20 00 	mov    0x20ab12(%rip),%rdx        # 60c600 <RAMfilePtr>
  401aee:	48 c1 e0 02          	shl    $0x2,%rax
  401af2:	48 8d 0c 02          	lea    (%rdx,%rax,1),%rcx
  401af6:	48 3b 0d fb aa 20 00 	cmp    0x20aafb(%rip),%rcx        # 60c5f8 <RAMfileEOF>
  401afd:	76 0b                	jbe    401b0a <WriteOut+0x2a>
  401aff:	48 8b 15 0a ab 20 00 	mov    0x20ab0a(%rip),%rdx        # 60c610 <RAMfile>
  401b06:	48 8d 0c 02          	lea    (%rdx,%rax,1),%rcx
  401b0a:	48 89 3a             	mov    %rdi,(%rdx)
  401b0d:	48 89 0d ec aa 20 00 	mov    %rcx,0x20aaec(%rip)        # 60c600 <RAMfilePtr>
  401b14:	c3                   	retq   
  401b15:	66 2e 0f 1f 84 00 00 	nopw   %cs:0x0(%rax,%rax,1)
  401b1c:	00 00 00 
  401b1f:	90                   	nop

0000000000401b20 <al_lc_open>:
  401b20:	31 c0                	xor    %eax,%eax
  401b22:	c3                   	retq   
  401b23:	66 66 66 66 2e 0f 1f 	data32 data32 data32 nopw %cs:0x0(%rax,%rax,1)
  401b2a:	84 00 00 00 00 00 

0000000000401b30 <al_lc_close>:
  401b30:	f3 c3                	repz retq 
  401b32:	66 66 66 66 66 2e 0f 	data32 data32 data32 data32 nopw %cs:0x0(%rax,%rax,1)
  401b39:	1f 84 00 00 00 00 00 

0000000000401b40 <al_write_con>:
  401b40:	48 85 f6             	test   %rsi,%rsi
  401b43:	75 0b                	jne    401b50 <al_write_con+0x10>
  401b45:	31 c0                	xor    %eax,%eax
  401b47:	c3                   	retq   
  401b48:	0f 1f 84 00 00 00 00 	nopl   0x0(%rax,%rax,1)
  401b4f:	00 
  401b50:	48 83 ec 08          	sub    $0x8,%rsp
  401b54:	48 8b 0d c5 97 20 00 	mov    0x2097c5(%rip),%rcx        # 60b320 <stdout@@GLIBC_2.2.5>
  401b5b:	48 89 f2             	mov    %rsi,%rdx
  401b5e:	be 01 00 00 00       	mov    $0x1,%esi
  401b63:	e8 d8 ee ff ff       	callq  400a40 <fwrite@plt>
  401b68:	31 c0                	xor    %eax,%eax
  401b6a:	48 83 c4 08          	add    $0x8,%rsp
  401b6e:	c3                   	retq   
  401b6f:	90                   	nop

0000000000401b70 <al_read_con>:
  401b70:	41 55                	push   %r13
  401b72:	41 54                	push   %r12
  401b74:	49 89 f4             	mov    %rsi,%r12
  401b77:	55                   	push   %rbp
  401b78:	53                   	push   %rbx
  401b79:	48 83 ec 08          	sub    $0x8,%rsp
  401b7d:	48 85 f6             	test   %rsi,%rsi
  401b80:	74 4e                	je     401bd0 <al_read_con+0x60>
  401b82:	49 89 fd             	mov    %rdi,%r13
  401b85:	31 db                	xor    %ebx,%ebx
  401b87:	eb 15                	jmp    401b9e <al_read_con+0x2e>
  401b89:	0f 1f 80 00 00 00 00 	nopl   0x0(%rax)
  401b90:	41 88 6c 1d 00       	mov    %bpl,0x0(%r13,%rbx,1)
  401b95:	48 83 c3 01          	add    $0x1,%rbx
  401b99:	49 39 dc             	cmp    %rbx,%r12
  401b9c:	74 32                	je     401bd0 <al_read_con+0x60>
  401b9e:	48 8b 3d 83 97 20 00 	mov    0x209783(%rip),%rdi        # 60b328 <stdin@@GLIBC_2.2.5>
  401ba5:	e8 06 ee ff ff       	callq  4009b0 <fgetc@plt>
  401baa:	83 f8 ff             	cmp    $0xffffffff,%eax
  401bad:	89 c5                	mov    %eax,%ebp
  401baf:	75 df                	jne    401b90 <al_read_con+0x20>
  401bb1:	31 c0                	xor    %eax,%eax
  401bb3:	be 0f 90 40 00       	mov    $0x40900f,%esi
  401bb8:	bf 01 00 00 00       	mov    $0x1,%edi
  401bbd:	e8 3e 0a 00 00       	callq  402600 <t_exit>
  401bc2:	41 88 6c 1d 00       	mov    %bpl,0x0(%r13,%rbx,1)
  401bc7:	48 83 c3 01          	add    $0x1,%rbx
  401bcb:	49 39 dc             	cmp    %rbx,%r12
  401bce:	75 ce                	jne    401b9e <al_read_con+0x2e>
  401bd0:	48 83 c4 08          	add    $0x8,%rsp
  401bd4:	4c 89 e0             	mov    %r12,%rax
  401bd7:	5b                   	pop    %rbx
  401bd8:	5d                   	pop    %rbp
  401bd9:	41 5c                	pop    %r12
  401bdb:	41 5d                	pop    %r13
  401bdd:	c3                   	retq   
  401bde:	66 90                	xchg   %ax,%ax

0000000000401be0 <al_con_chars_avail>:
  401be0:	b8 01 00 00 00       	mov    $0x1,%eax
  401be5:	c3                   	retq   
  401be6:	66 2e 0f 1f 84 00 00 	nopw   %cs:0x0(%rax,%rax,1)
  401bed:	00 00 00 

0000000000401bf0 <al_signal_start>:
  401bf0:	48 83 ec 08          	sub    $0x8,%rsp
  401bf4:	e8 87 ed ff ff       	callq  400980 <clock@plt>
  401bf9:	48 89 05 38 98 20 00 	mov    %rax,0x209838(%rip)        # 60b438 <start_time>
  401c00:	48 83 c4 08          	add    $0x8,%rsp
  401c04:	c3                   	retq   
  401c05:	66 66 2e 0f 1f 84 00 	data32 nopw %cs:0x0(%rax,%rax,1)
  401c0c:	00 00 00 00 

0000000000401c10 <al_signal_finished>:
  401c10:	48 83 ec 08          	sub    $0x8,%rsp
  401c14:	e8 67 ed ff ff       	callq  400980 <clock@plt>
  401c19:	48 89 05 10 98 20 00 	mov    %rax,0x209810(%rip)        # 60b430 <stop_time>
  401c20:	48 2b 05 11 98 20 00 	sub    0x209811(%rip),%rax        # 60b438 <start_time>
  401c27:	48 83 c4 08          	add    $0x8,%rsp
  401c2b:	c3                   	retq   
  401c2c:	0f 1f 40 00          	nopl   0x0(%rax)

0000000000401c30 <al_ticks_per_sec>:
  401c30:	b8 40 42 0f 00       	mov    $0xf4240,%eax
  401c35:	c3                   	retq   
  401c36:	66 2e 0f 1f 84 00 00 	nopw   %cs:0x0(%rax,%rax,1)
  401c3d:	00 00 00 

0000000000401c40 <al_tick_granularity>:
  401c40:	b8 0a 00 00 00       	mov    $0xa,%eax
  401c45:	c3                   	retq   
  401c46:	66 2e 0f 1f 84 00 00 	nopw   %cs:0x0(%rax,%rax,1)
  401c4d:	00 00 00 

0000000000401c50 <al_exit>:
  401c50:	85 ff                	test   %edi,%edi
  401c52:	53                   	push   %rbx
  401c53:	b8 01 80 ff ff       	mov    $0xffff8001,%eax
  401c58:	89 fb                	mov    %edi,%ebx
  401c5a:	0f 44 d8             	cmove  %eax,%ebx
  401c5d:	48 85 f6             	test   %rsi,%rsi
  401c60:	74 5a                	je     401cbc <al_exit+0x6c>
  401c62:	49 89 d0             	mov    %rdx,%r8
  401c65:	48 89 f1             	mov    %rsi,%rcx
  401c68:	ba 00 04 00 00       	mov    $0x400,%edx
  401c6d:	be 01 00 00 00       	mov    $0x1,%esi
  401c72:	bf 20 c6 60 00       	mov    $0x60c620,%edi
  401c77:	e8 e4 ed ff ff       	callq  400a60 <__vsprintf_chk@plt>
  401c7c:	ba 20 c6 60 00       	mov    $0x60c620,%edx
  401c81:	8b 0a                	mov    (%rdx),%ecx
  401c83:	48 83 c2 04          	add    $0x4,%rdx
  401c87:	8d 81 ff fe fe fe    	lea    -0x1010101(%rcx),%eax
  401c8d:	f7 d1                	not    %ecx
  401c8f:	21 c8                	and    %ecx,%eax
  401c91:	25 80 80 80 80       	and    $0x80808080,%eax
  401c96:	74 e9                	je     401c81 <al_exit+0x31>
  401c98:	89 c1                	mov    %eax,%ecx
  401c9a:	c1 e9 10             	shr    $0x10,%ecx
  401c9d:	a9 80 80 00 00       	test   $0x8080,%eax
  401ca2:	0f 44 c1             	cmove  %ecx,%eax
  401ca5:	48 8d 4a 02          	lea    0x2(%rdx),%rcx
  401ca9:	48 0f 44 d1          	cmove  %rcx,%rdx
  401cad:	00 c0                	add    %al,%al
  401caf:	48 83 da 03          	sbb    $0x3,%rdx
  401cb3:	48 81 ea 20 c6 60 00 	sub    $0x60c620,%rdx
  401cba:	75 0c                	jne    401cc8 <al_exit+0x78>
  401cbc:	89 de                	mov    %ebx,%esi
  401cbe:	bf 40 b4 60 00       	mov    $0x60b440,%edi
  401cc3:	e8 58 ed ff ff       	callq  400a20 <__longjmp_chk@plt>
  401cc8:	48 8b 0d 51 96 20 00 	mov    0x209651(%rip),%rcx        # 60b320 <stdout@@GLIBC_2.2.5>
  401ccf:	be 01 00 00 00       	mov    $0x1,%esi
  401cd4:	bf 20 c6 60 00       	mov    $0x60c620,%edi
  401cd9:	e8 62 ed ff ff       	callq  400a40 <fwrite@plt>
  401cde:	eb dc                	jmp    401cbc <al_exit+0x6c>

0000000000401ce0 <al_report_results>:
  401ce0:	f3 c3                	repz retq 
  401ce2:	66 2e 0f 1f 84 00 00 	nopw   %cs:0x0(%rax,%rax,1)
  401ce9:	00 00 00 
  401cec:	0f 1f 40 00          	nopl   0x0(%rax)

0000000000401cf0 <Calc_crc8>:
  401cf0:	89 f0                	mov    %esi,%eax
  401cf2:	ba 08 00 00 00       	mov    $0x8,%edx
  401cf7:	eb 0f                	jmp    401d08 <Calc_crc8+0x18>
  401cf9:	0f 1f 80 00 00 00 00 	nopl   0x0(%rax)
  401d00:	66 d1 e8             	shr    %ax
  401d03:	80 ea 01             	sub    $0x1,%dl
  401d06:	74 1c                	je     401d24 <Calc_crc8+0x34>
  401d08:	89 f9                	mov    %edi,%ecx
  401d0a:	40 d0 ef             	shr    %dil
  401d0d:	31 c1                	xor    %eax,%ecx
  401d0f:	83 e1 01             	and    $0x1,%ecx
  401d12:	74 ec                	je     401d00 <Calc_crc8+0x10>
  401d14:	66 35 02 40          	xor    $0x4002,%ax
  401d18:	66 d1 e8             	shr    %ax
  401d1b:	66 0d 00 80          	or     $0x8000,%ax
  401d1f:	80 ea 01             	sub    $0x1,%dl
  401d22:	75 e4                	jne    401d08 <Calc_crc8+0x18>
  401d24:	f3 c3                	repz retq 
  401d26:	66 2e 0f 1f 84 00 00 	nopw   %cs:0x0(%rax,%rax,1)
  401d2d:	00 00 00 

0000000000401d30 <Calc_crc16>:
  401d30:	89 f0                	mov    %esi,%eax
  401d32:	89 f9                	mov    %edi,%ecx
  401d34:	ba 08 00 00 00       	mov    $0x8,%edx
  401d39:	eb 0d                	jmp    401d48 <Calc_crc16+0x18>
  401d3b:	0f 1f 44 00 00       	nopl   0x0(%rax,%rax,1)
  401d40:	66 d1 e8             	shr    %ax
  401d43:	80 ea 01             	sub    $0x1,%dl
  401d46:	74 1b                	je     401d63 <Calc_crc16+0x33>
  401d48:	89 ce                	mov    %ecx,%esi
  401d4a:	d0 e9                	shr    %cl
  401d4c:	31 c6                	xor    %eax,%esi
  401d4e:	83 e6 01             	and    $0x1,%esi
  401d51:	74 ed                	je     401d40 <Calc_crc16+0x10>
  401d53:	66 35 02 40          	xor    $0x4002,%ax
  401d57:	66 d1 e8             	shr    %ax
  401d5a:	66 0d 00 80          	or     $0x8000,%ax
  401d5e:	80 ea 01             	sub    $0x1,%dl
  401d61:	75 e5                	jne    401d48 <Calc_crc16+0x18>
  401d63:	66 c1 ef 08          	shr    $0x8,%di
  401d67:	ba 08 00 00 00       	mov    $0x8,%edx
  401d6c:	eb 0a                	jmp    401d78 <Calc_crc16+0x48>
  401d6e:	66 90                	xchg   %ax,%ax
  401d70:	66 d1 e8             	shr    %ax
  401d73:	80 ea 01             	sub    $0x1,%dl
  401d76:	74 1c                	je     401d94 <Calc_crc16+0x64>
  401d78:	89 f9                	mov    %edi,%ecx
  401d7a:	40 d0 ef             	shr    %dil
  401d7d:	31 c1                	xor    %eax,%ecx
  401d7f:	83 e1 01             	and    $0x1,%ecx
  401d82:	74 ec                	je     401d70 <Calc_crc16+0x40>
  401d84:	66 35 02 40          	xor    $0x4002,%ax
  401d88:	66 d1 e8             	shr    %ax
  401d8b:	66 0d 00 80          	or     $0x8000,%ax
  401d8f:	80 ea 01             	sub    $0x1,%dl
  401d92:	75 e4                	jne    401d78 <Calc_crc16+0x48>
  401d94:	f3 c3                	repz retq 
  401d96:	66 2e 0f 1f 84 00 00 	nopw   %cs:0x0(%rax,%rax,1)
  401d9d:	00 00 00 

0000000000401da0 <Calc_crc32>:
  401da0:	89 f0                	mov    %esi,%eax
  401da2:	ba 08 00 00 00       	mov    $0x8,%edx
  401da7:	89 fe                	mov    %edi,%esi
  401da9:	eb 0d                	jmp    401db8 <Calc_crc32+0x18>
  401dab:	0f 1f 44 00 00       	nopl   0x0(%rax,%rax,1)
  401db0:	66 d1 e8             	shr    %ax
  401db3:	80 ea 01             	sub    $0x1,%dl
  401db6:	74 1f                	je     401dd7 <Calc_crc32+0x37>
  401db8:	41 89 f0             	mov    %esi,%r8d
  401dbb:	40 d0 ee             	shr    %sil
  401dbe:	41 31 c0             	xor    %eax,%r8d
  401dc1:	41 83 e0 01          	and    $0x1,%r8d
  401dc5:	74 e9                	je     401db0 <Calc_crc32+0x10>
  401dc7:	66 35 02 40          	xor    $0x4002,%ax
  401dcb:	66 d1 e8             	shr    %ax
  401dce:	66 0d 00 80          	or     $0x8000,%ax
  401dd2:	80 ea 01             	sub    $0x1,%dl
  401dd5:	75 e1                	jne    401db8 <Calc_crc32+0x18>
  401dd7:	48 89 f9             	mov    %rdi,%rcx
  401dda:	ba 08 00 00 00       	mov    $0x8,%edx
  401ddf:	48 c1 e9 08          	shr    $0x8,%rcx
  401de3:	48 89 ce             	mov    %rcx,%rsi
  401de6:	eb 10                	jmp    401df8 <Calc_crc32+0x58>
  401de8:	0f 1f 84 00 00 00 00 	nopl   0x0(%rax,%rax,1)
  401def:	00 
  401df0:	66 d1 e8             	shr    %ax
  401df3:	80 ea 01             	sub    $0x1,%dl
  401df6:	74 1f                	je     401e17 <Calc_crc32+0x77>
  401df8:	41 89 f0             	mov    %esi,%r8d
  401dfb:	40 d0 ee             	shr    %sil
  401dfe:	41 31 c0             	xor    %eax,%r8d
  401e01:	41 83 e0 01          	and    $0x1,%r8d
  401e05:	74 e9                	je     401df0 <Calc_crc32+0x50>
  401e07:	66 35 02 40          	xor    $0x4002,%ax
  401e0b:	66 d1 e8             	shr    %ax
  401e0e:	66 0d 00 80          	or     $0x8000,%ax
  401e12:	80 ea 01             	sub    $0x1,%dl
  401e15:	75 e1                	jne    401df8 <Calc_crc32+0x58>
  401e17:	48 89 fe             	mov    %rdi,%rsi
  401e1a:	ba 08 00 00 00       	mov    $0x8,%edx
  401e1f:	81 e6 00 00 ff 00    	and    $0xff0000,%esi
  401e25:	48 c1 ee 10          	shr    $0x10,%rsi
  401e29:	eb 0d                	jmp    401e38 <Calc_crc32+0x98>
  401e2b:	0f 1f 44 00 00       	nopl   0x0(%rax,%rax,1)
  401e30:	66 d1 e8             	shr    %ax
  401e33:	80 ea 01             	sub    $0x1,%dl
  401e36:	74 1f                	je     401e57 <Calc_crc32+0xb7>
  401e38:	41 89 f0             	mov    %esi,%r8d
  401e3b:	40 d0 ee             	shr    %sil
  401e3e:	41 31 c0             	xor    %eax,%r8d
  401e41:	41 83 e0 01          	and    $0x1,%r8d
  401e45:	74 e9                	je     401e30 <Calc_crc32+0x90>
  401e47:	66 35 02 40          	xor    $0x4002,%ax
  401e4b:	66 d1 e8             	shr    %ax
  401e4e:	66 0d 00 80          	or     $0x8000,%ax
  401e52:	80 ea 01             	sub    $0x1,%dl
  401e55:	75 e1                	jne    401e38 <Calc_crc32+0x98>
  401e57:	81 e7 00 00 00 ff    	and    $0xff000000,%edi
  401e5d:	ba 08 00 00 00       	mov    $0x8,%edx
  401e62:	48 89 f9             	mov    %rdi,%rcx
  401e65:	48 c1 e9 18          	shr    $0x18,%rcx
  401e69:	eb 0d                	jmp    401e78 <Calc_crc32+0xd8>
  401e6b:	0f 1f 44 00 00       	nopl   0x0(%rax,%rax,1)
  401e70:	66 d1 e8             	shr    %ax
  401e73:	80 ea 01             	sub    $0x1,%dl
  401e76:	74 1b                	je     401e93 <Calc_crc32+0xf3>
  401e78:	89 ce                	mov    %ecx,%esi
  401e7a:	d0 e9                	shr    %cl
  401e7c:	31 c6                	xor    %eax,%esi
  401e7e:	83 e6 01             	and    $0x1,%esi
  401e81:	74 ed                	je     401e70 <Calc_crc32+0xd0>
  401e83:	66 35 02 40          	xor    $0x4002,%ax
  401e87:	66 d1 e8             	shr    %ax
  401e8a:	66 0d 00 80          	or     $0x8000,%ax
  401e8e:	80 ea 01             	sub    $0x1,%dl
  401e91:	75 e5                	jne    401e78 <Calc_crc32+0xd8>
  401e93:	f3 c3                	repz retq 
  401e95:	66 2e 0f 1f 84 00 00 	nopw   %cs:0x0(%rax,%rax,1)
  401e9c:	00 00 00 
  401e9f:	90                   	nop

0000000000401ea0 <set_cmd_line>:
  401ea0:	48 8b 15 91 96 20 00 	mov    0x209691(%rip),%rdx        # 60b538 <argv0_pgm>
  401ea7:	b8 40 90 40 00       	mov    $0x409040,%eax
  401eac:	c7 05 8a 96 20 00 01 	movl   $0x1,0x20968a(%rip)        # 60b540 <argca>
  401eb3:	00 00 00 
  401eb6:	48 c7 05 a7 96 20 00 	movq   $0x0,0x2096a7(%rip)        # 60b568 <argva+0x8>
  401ebd:	00 00 00 00 
  401ec1:	48 85 d2             	test   %rdx,%rdx
  401ec4:	48 0f 45 c2          	cmovne %rdx,%rax
  401ec8:	48 85 ff             	test   %rdi,%rdi
  401ecb:	48 89 05 8e 96 20 00 	mov    %rax,0x20968e(%rip)        # 60b560 <argva>
  401ed2:	74 05                	je     401ed9 <set_cmd_line+0x39>
  401ed4:	80 3f 00             	cmpb   $0x0,(%rdi)
  401ed7:	75 07                	jne    401ee0 <set_cmd_line+0x40>
  401ed9:	f3 c3                	repz retq 
  401edb:	0f 1f 44 00 00       	nopl   0x0(%rax,%rax,1)
  401ee0:	48 89 fe             	mov    %rdi,%rsi
  401ee3:	48 83 ec 08          	sub    $0x8,%rsp
  401ee7:	ba 11 04 00 00       	mov    $0x411,%edx
  401eec:	bf 60 b9 60 00       	mov    $0x60b960,%edi
  401ef1:	e8 1a 20 00 00       	callq  403f10 <cpystr>
  401ef6:	e8 75 eb ff ff       	callq  400a70 <__ctype_b_loc@plt>
  401efb:	4c 63 05 3e 96 20 00 	movslq 0x20963e(%rip),%r8        # 60b540 <argca>
  401f02:	48 8b 30             	mov    (%rax),%rsi
  401f05:	b9 60 b9 60 00       	mov    $0x60b960,%ecx
  401f0a:	45 89 c1             	mov    %r8d,%r9d
  401f0d:	0f 1f 00             	nopl   (%rax)
  401f10:	0f b6 11             	movzbl (%rcx),%edx
  401f13:	48 0f be fa          	movsbq %dl,%rdi
  401f17:	f6 44 7e 01 20       	testb  $0x20,0x1(%rsi,%rdi,2)
  401f1c:	75 50                	jne    401f6e <set_cmd_line+0xce>
  401f1e:	84 d2                	test   %dl,%dl
  401f20:	74 52                	je     401f74 <set_cmd_line+0xd4>
  401f22:	49 63 d0             	movslq %r8d,%rdx
  401f25:	45 8d 48 01          	lea    0x1(%r8),%r9d
  401f29:	48 89 0c d5 60 b5 60 	mov    %rcx,0x60b560(,%rdx,8)
  401f30:	00 
  401f31:	48 8b 30             	mov    (%rax),%rsi
  401f34:	48 89 ca             	mov    %rcx,%rdx
  401f37:	f6 44 7e 01 20       	testb  $0x20,0x1(%rsi,%rdi,2)
  401f3c:	74 09                	je     401f47 <set_cmd_line+0xa7>
  401f3e:	eb 13                	jmp    401f53 <set_cmd_line+0xb3>
  401f40:	f6 44 4e 01 20       	testb  $0x20,0x1(%rsi,%rcx,2)
  401f45:	75 0c                	jne    401f53 <set_cmd_line+0xb3>
  401f47:	48 83 c2 01          	add    $0x1,%rdx
  401f4b:	48 0f be 0a          	movsbq (%rdx),%rcx
  401f4f:	84 c9                	test   %cl,%cl
  401f51:	75 ed                	jne    401f40 <set_cmd_line+0xa0>
  401f53:	48 8d 4a 01          	lea    0x1(%rdx),%rcx
  401f57:	c6 02 00             	movb   $0x0,(%rdx)
  401f5a:	48 8b 30             	mov    (%rax),%rsi
  401f5d:	4d 63 c1             	movslq %r9d,%r8
  401f60:	0f b6 11             	movzbl (%rcx),%edx
  401f63:	48 0f be fa          	movsbq %dl,%rdi
  401f67:	f6 44 7e 01 20       	testb  $0x20,0x1(%rsi,%rdi,2)
  401f6c:	74 b0                	je     401f1e <set_cmd_line+0x7e>
  401f6e:	48 83 c1 01          	add    $0x1,%rcx
  401f72:	eb 9c                	jmp    401f10 <set_cmd_line+0x70>
  401f74:	44 89 0d c5 95 20 00 	mov    %r9d,0x2095c5(%rip)        # 60b540 <argca>
  401f7b:	4a c7 04 c5 60 b5 60 	movq   $0x0,0x60b560(,%r8,8)
  401f82:	00 00 00 00 00 
  401f87:	48 83 c4 08          	add    $0x8,%rsp
  401f8b:	c3                   	retq   
  401f8c:	0f 1f 40 00          	nopl   0x0(%rax)

0000000000401f90 <i_printf>:
  401f90:	53                   	push   %rbx
  401f91:	48 89 f9             	mov    %rdi,%rcx
  401f94:	49 89 f0             	mov    %rsi,%r8
  401f97:	ba 00 04 00 00       	mov    $0x400,%edx
  401f9c:	be 01 00 00 00       	mov    $0x1,%esi
  401fa1:	bf 20 c6 60 00       	mov    $0x60c620,%edi
  401fa6:	e8 b5 ea ff ff       	callq  400a60 <__vsprintf_chk@plt>
  401fab:	bf 20 c6 60 00       	mov    $0x60c620,%edi
  401fb0:	e8 2b 23 00 00       	callq  4042e0 <xlate_nl_inplace>
  401fb5:	bf 20 c6 60 00       	mov    $0x60c620,%edi
  401fba:	48 63 f0             	movslq %eax,%rsi
  401fbd:	89 c3                	mov    %eax,%ebx
  401fbf:	e8 7c fb ff ff       	callq  401b40 <al_write_con>
  401fc4:	31 d2                	xor    %edx,%edx
  401fc6:	85 c0                	test   %eax,%eax
  401fc8:	0f 44 d3             	cmove  %ebx,%edx
  401fcb:	89 d0                	mov    %edx,%eax
  401fcd:	5b                   	pop    %rbx
  401fce:	c3                   	retq   
  401fcf:	90                   	nop

0000000000401fd0 <i_sprintf>:
  401fd0:	48 89 f1             	mov    %rsi,%rcx
  401fd3:	49 89 d0             	mov    %rdx,%r8
  401fd6:	be 01 00 00 00       	mov    $0x1,%esi
  401fdb:	48 c7 c2 ff ff ff ff 	mov    $0xffffffffffffffff,%rdx
  401fe2:	e9 79 ea ff ff       	jmpq   400a60 <__vsprintf_chk@plt>
  401fe7:	66 0f 1f 84 00 00 00 	nopw   0x0(%rax,%rax,1)
  401fee:	00 00 

0000000000401ff0 <i_sends>:
  401ff0:	48 85 ff             	test   %rdi,%rdi
  401ff3:	b8 01 00 00 00       	mov    $0x1,%eax
  401ff8:	74 2a                	je     402024 <i_sends+0x34>
  401ffa:	48 83 ec 08          	sub    $0x8,%rsp
  401ffe:	be 20 c6 60 00       	mov    $0x60c620,%esi
  402003:	e8 88 22 00 00       	callq  404290 <xlate_nl>
  402008:	bf 20 c6 60 00       	mov    $0x60c620,%edi
  40200d:	48 63 f0             	movslq %eax,%rsi
  402010:	e8 2b fb ff ff       	callq  401b40 <al_write_con>
  402015:	83 f8 01             	cmp    $0x1,%eax
  402018:	19 c0                	sbb    %eax,%eax
  40201a:	48 83 c4 08          	add    $0x8,%rsp
  40201e:	83 e0 02             	and    $0x2,%eax
  402021:	83 e8 01             	sub    $0x1,%eax
  402024:	f3 c3                	repz retq 
  402026:	66 2e 0f 1f 84 00 00 	nopw   %cs:0x0(%rax,%rax,1)
  40202d:	00 00 00 

0000000000402030 <i_putchar>:
  402030:	48 83 ec 28          	sub    $0x28,%rsp
  402034:	40 80 ff 0a          	cmp    $0xa,%dil
  402038:	40 88 7c 24 0c       	mov    %dil,0xc(%rsp)
  40203d:	c6 44 24 1f 0d       	movb   $0xd,0x1f(%rsp)
  402042:	74 24                	je     402068 <i_putchar+0x38>
  402044:	48 8d 7c 24 0c       	lea    0xc(%rsp),%rdi
  402049:	be 01 00 00 00       	mov    $0x1,%esi
  40204e:	e8 ed fa ff ff       	callq  401b40 <al_write_con>
  402053:	85 c0                	test   %eax,%eax
  402055:	75 24                	jne    40207b <i_putchar+0x4b>
  402057:	0f b6 44 24 0c       	movzbl 0xc(%rsp),%eax
  40205c:	48 83 c4 28          	add    $0x28,%rsp
  402060:	c3                   	retq   
  402061:	0f 1f 80 00 00 00 00 	nopl   0x0(%rax)
  402068:	48 8d 7c 24 1f       	lea    0x1f(%rsp),%rdi
  40206d:	be 01 00 00 00       	mov    $0x1,%esi
  402072:	e8 c9 fa ff ff       	callq  401b40 <al_write_con>
  402077:	85 c0                	test   %eax,%eax
  402079:	74 c9                	je     402044 <i_putchar+0x14>
  40207b:	b8 ff ff ff ff       	mov    $0xffffffff,%eax
  402080:	eb da                	jmp    40205c <i_putchar+0x2c>
  402082:	66 66 66 66 66 2e 0f 	data32 data32 data32 data32 nopw %cs:0x0(%rax,%rax,1)
  402089:	1f 84 00 00 00 00 00 

0000000000402090 <i_write_con>:
  402090:	e9 ab fa ff ff       	jmpq   401b40 <al_write_con>
  402095:	66 66 2e 0f 1f 84 00 	data32 nopw %cs:0x0(%rax,%rax,1)
  40209c:	00 00 00 00 

00000000004020a0 <i_read_con>:
  4020a0:	e9 cb fa ff ff       	jmpq   401b70 <al_read_con>
  4020a5:	66 66 2e 0f 1f 84 00 	data32 nopw %cs:0x0(%rax,%rax,1)
  4020ac:	00 00 00 00 

00000000004020b0 <i_con_chars_avail>:
  4020b0:	e9 2b fb ff ff       	jmpq   401be0 <al_con_chars_avail>
  4020b5:	66 66 2e 0f 1f 84 00 	data32 nopw %cs:0x0(%rax,%rax,1)
  4020bc:	00 00 00 00 

00000000004020c0 <i_ticks_per_sec>:
  4020c0:	e9 6b fb ff ff       	jmpq   401c30 <al_ticks_per_sec>
  4020c5:	66 66 2e 0f 1f 84 00 	data32 nopw %cs:0x0(%rax,%rax,1)
  4020cc:	00 00 00 00 

00000000004020d0 <i_tick_granularity>:
  4020d0:	e9 6b fb ff ff       	jmpq   401c40 <al_tick_granularity>
  4020d5:	66 66 2e 0f 1f 84 00 	data32 nopw %cs:0x0(%rax,%rax,1)
  4020dc:	00 00 00 00 

00000000004020e0 <i_malloc>:
  4020e0:	e9 2b e9 ff ff       	jmpq   400a10 <malloc@plt>
  4020e5:	66 66 2e 0f 1f 84 00 	data32 nopw %cs:0x0(%rax,%rax,1)
  4020ec:	00 00 00 00 

00000000004020f0 <i_free>:
  4020f0:	e9 6b e8 ff ff       	jmpq   400960 <free@plt>
  4020f5:	66 66 2e 0f 1f 84 00 	data32 nopw %cs:0x0(%rax,%rax,1)
  4020fc:	00 00 00 00 

0000000000402100 <i_heap_reset>:
  402100:	f3 c3                	repz retq 
  402102:	66 66 66 66 66 2e 0f 	data32 data32 data32 data32 nopw %cs:0x0(%rax,%rax,1)
  402109:	1f 84 00 00 00 00 00 

0000000000402110 <i_exit>:
  402110:	e9 3b fb ff ff       	jmpq   401c50 <al_exit>
  402115:	66 66 2e 0f 1f 84 00 	data32 nopw %cs:0x0(%rax,%rax,1)
  40211c:	00 00 00 00 

0000000000402120 <i_get_file_def>:
  402120:	e9 2b 1a 00 00       	jmpq   403b50 <mem_get_file_def>
  402125:	66 66 2e 0f 1f 84 00 	data32 nopw %cs:0x0(%rax,%rax,1)
  40212c:	00 00 00 00 

0000000000402130 <i_get_file_num>:
  402130:	e9 8b 1a 00 00       	jmpq   403bc0 <mem_get_file_num>
  402135:	66 66 2e 0f 1f 84 00 	data32 nopw %cs:0x0(%rax,%rax,1)
  40213c:	00 00 00 00 

0000000000402140 <i_send_buf_as_file>:
  402140:	e9 7b 16 00 00       	jmpq   4037c0 <uu_send_buf>
  402145:	66 66 2e 0f 1f 84 00 	data32 nopw %cs:0x0(%rax,%rax,1)
  40214c:	00 00 00 00 

0000000000402150 <i_harness_poll>:
  402150:	b8 01 00 00 00       	mov    $0x1,%eax
  402155:	c3                   	retq   
  402156:	66 2e 0f 1f 84 00 00 	nopw   %cs:0x0(%rax,%rax,1)
  40215d:	00 00 00 

0000000000402160 <t_printf>:
  402160:	48 81 ec d8 00 00 00 	sub    $0xd8,%rsp
  402167:	84 c0                	test   %al,%al
  402169:	48 89 74 24 28       	mov    %rsi,0x28(%rsp)
  40216e:	48 89 54 24 30       	mov    %rdx,0x30(%rsp)
  402173:	48 89 4c 24 38       	mov    %rcx,0x38(%rsp)
  402178:	4c 89 44 24 40       	mov    %r8,0x40(%rsp)
  40217d:	4c 89 4c 24 48       	mov    %r9,0x48(%rsp)
  402182:	74 37                	je     4021bb <t_printf+0x5b>
  402184:	0f 29 44 24 50       	movaps %xmm0,0x50(%rsp)
  402189:	0f 29 4c 24 60       	movaps %xmm1,0x60(%rsp)
  40218e:	0f 29 54 24 70       	movaps %xmm2,0x70(%rsp)
  402193:	0f 29 9c 24 80 00 00 	movaps %xmm3,0x80(%rsp)
  40219a:	00 
  40219b:	0f 29 a4 24 90 00 00 	movaps %xmm4,0x90(%rsp)
  4021a2:	00 
  4021a3:	0f 29 ac 24 a0 00 00 	movaps %xmm5,0xa0(%rsp)
  4021aa:	00 
  4021ab:	0f 29 b4 24 b0 00 00 	movaps %xmm6,0xb0(%rsp)
  4021b2:	00 
  4021b3:	0f 29 bc 24 c0 00 00 	movaps %xmm7,0xc0(%rsp)
  4021ba:	00 
  4021bb:	48 8d 84 24 e0 00 00 	lea    0xe0(%rsp),%rax
  4021c2:	00 
  4021c3:	48 8d 74 24 08       	lea    0x8(%rsp),%rsi
  4021c8:	48 89 44 24 10       	mov    %rax,0x10(%rsp)
  4021cd:	48 8d 44 24 20       	lea    0x20(%rsp),%rax
  4021d2:	c7 44 24 08 08 00 00 	movl   $0x8,0x8(%rsp)
  4021d9:	00 
  4021da:	c7 44 24 0c 30 00 00 	movl   $0x30,0xc(%rsp)
  4021e1:	00 
  4021e2:	48 89 44 24 18       	mov    %rax,0x18(%rsp)
  4021e7:	e8 a4 fd ff ff       	callq  401f90 <i_printf>
  4021ec:	48 81 c4 d8 00 00 00 	add    $0xd8,%rsp
  4021f3:	c3                   	retq   
  4021f4:	66 66 66 2e 0f 1f 84 	data32 data32 nopw %cs:0x0(%rax,%rax,1)
  4021fb:	00 00 00 00 00 

0000000000402200 <i_signal_start>:
  402200:	48 83 ec 08          	sub    $0x8,%rsp
  402204:	bf 43 90 40 00       	mov    $0x409043,%edi
  402209:	31 c0                	xor    %eax,%eax
  40220b:	e8 50 ff ff ff       	callq  402160 <t_printf>
  402210:	48 83 c4 08          	add    $0x8,%rsp
  402214:	e9 d7 f9 ff ff       	jmpq   401bf0 <al_signal_start>
  402219:	0f 1f 80 00 00 00 00 	nopl   0x0(%rax)

0000000000402220 <i_signal_finished>:
  402220:	53                   	push   %rbx
  402221:	e8 ea f9 ff ff       	callq  401c10 <al_signal_finished>
  402226:	bf 4e 90 40 00       	mov    $0x40904e,%edi
  40222b:	48 89 c3             	mov    %rax,%rbx
  40222e:	31 c0                	xor    %eax,%eax
  402230:	e8 2b ff ff ff       	callq  402160 <t_printf>
  402235:	48 89 d8             	mov    %rbx,%rax
  402238:	5b                   	pop    %rbx
  402239:	c3                   	retq   
  40223a:	66 0f 1f 44 00 00    	nopw   0x0(%rax,%rax,1)

0000000000402240 <i_report_results>:
  402240:	41 54                	push   %r12
  402242:	41 89 f4             	mov    %esi,%r12d
  402245:	31 c0                	xor    %eax,%eax
  402247:	55                   	push   %rbp
  402248:	53                   	push   %rbx
  402249:	48 89 fb             	mov    %rdi,%rbx
  40224c:	48 83 ec 10          	sub    $0x10,%rsp
  402250:	0f b7 77 10          	movzwl 0x10(%rdi),%esi
  402254:	bf 5c 90 40 00       	mov    $0x40905c,%edi
  402259:	e8 02 ff ff ff       	callq  402160 <t_printf>
  40225e:	48 8b 33             	mov    (%rbx),%rsi
  402261:	bf 79 90 40 00       	mov    $0x409079,%edi
  402266:	31 c0                	xor    %eax,%eax
  402268:	e8 f3 fe ff ff       	callq  402160 <t_printf>
  40226d:	48 8b 73 08          	mov    0x8(%rbx),%rsi
  402271:	bf 96 90 40 00       	mov    $0x409096,%edi
  402276:	31 c0                	xor    %eax,%eax
  402278:	e8 e3 fe ff ff       	callq  402160 <t_printf>
  40227d:	48 8b 73 18          	mov    0x18(%rbx),%rsi
  402281:	bf b3 90 40 00       	mov    $0x4090b3,%edi
  402286:	31 c0                	xor    %eax,%eax
  402288:	e8 d3 fe ff ff       	callq  402160 <t_printf>
  40228d:	48 8b 73 20          	mov    0x20(%rbx),%rsi
  402291:	bf cf 90 40 00       	mov    $0x4090cf,%edi
  402296:	31 c0                	xor    %eax,%eax
  402298:	e8 c3 fe ff ff       	callq  402160 <t_printf>
  40229d:	48 8b 73 28          	mov    0x28(%rbx),%rsi
  4022a1:	bf eb 90 40 00       	mov    $0x4090eb,%edi
  4022a6:	31 c0                	xor    %eax,%eax
  4022a8:	e8 b3 fe ff ff       	callq  402160 <t_printf>
  4022ad:	48 8b 73 30          	mov    0x30(%rbx),%rsi
  4022b1:	31 c0                	xor    %eax,%eax
  4022b3:	bf 07 91 40 00       	mov    $0x409107,%edi
  4022b8:	e8 a3 fe ff ff       	callq  402160 <t_printf>
  4022bd:	48 8b 6b 08          	mov    0x8(%rbx),%rbp
  4022c1:	48 85 ed             	test   %rbp,%rbp
  4022c4:	75 5a                	jne    402320 <i_report_results+0xe0>
  4022c6:	48 8b 73 38          	mov    0x38(%rbx),%rsi
  4022ca:	48 85 f6             	test   %rsi,%rsi
  4022cd:	74 09                	je     4022d8 <i_report_results+0x98>
  4022cf:	80 3e 00             	cmpb   $0x0,(%rsi)
  4022d2:	0f 85 e8 00 00 00    	jne    4023c0 <i_report_results+0x180>
  4022d8:	0f b7 73 10          	movzwl 0x10(%rbx),%esi
  4022dc:	31 c0                	xor    %eax,%eax
  4022de:	66 44 39 e6          	cmp    %r12w,%si
  4022e2:	74 13                	je     4022f7 <i_report_results+0xb7>
  4022e4:	41 0f b7 d4          	movzwl %r12w,%edx
  4022e8:	bf 58 93 40 00       	mov    $0x409358,%edi
  4022ed:	e8 6e fe ff ff       	callq  402160 <t_printf>
  4022f2:	b8 01 00 00 00       	mov    $0x1,%eax
  4022f7:	48 8b 33             	mov    (%rbx),%rsi
  4022fa:	48 8b 15 1f 92 20 00 	mov    0x20921f(%rip),%rdx        # 60b520 <iterations>
  402301:	48 39 d6             	cmp    %rdx,%rsi
  402304:	74 11                	je     402317 <i_report_results+0xd7>
  402306:	bf 88 93 40 00       	mov    $0x409388,%edi
  40230b:	31 c0                	xor    %eax,%eax
  40230d:	e8 4e fe ff ff       	callq  402160 <t_printf>
  402312:	b8 01 00 00 00       	mov    $0x1,%eax
  402317:	48 83 c4 10          	add    $0x10,%rsp
  40231b:	5b                   	pop    %rbx
  40231c:	5d                   	pop    %rbp
  40231d:	41 5c                	pop    %r12
  40231f:	c3                   	retq   
  402320:	48 8b 03             	mov    (%rbx),%rax
  402323:	48 85 c0             	test   %rax,%rax
  402326:	0f 88 ac 00 00 00    	js     4023d8 <i_report_results+0x198>
  40232c:	f2 48 0f 2a c8       	cvtsi2sd %rax,%xmm1
  402331:	f2 0f 11 0c 24       	movsd  %xmm1,(%rsp)
  402336:	e8 05 10 00 00       	callq  403340 <th_ticks_per_sec>
  40233b:	48 85 ed             	test   %rbp,%rbp
  40233e:	f2 0f 10 0c 24       	movsd  (%rsp),%xmm1
  402343:	0f 88 cf 00 00 00    	js     402418 <i_report_results+0x1d8>
  402349:	f2 48 0f 2a d5       	cvtsi2sd %rbp,%xmm2
  40234e:	48 85 c0             	test   %rax,%rax
  402351:	0f 88 a1 00 00 00    	js     4023f8 <i_report_results+0x1b8>
  402357:	f2 48 0f 2a c0       	cvtsi2sd %rax,%xmm0
  40235c:	f2 0f 5e d0          	divsd  %xmm0,%xmm2
  402360:	bf 23 91 40 00       	mov    $0x409123,%edi
  402365:	b8 01 00 00 00       	mov    $0x1,%eax
  40236a:	f2 0f 5e ca          	divsd  %xmm2,%xmm1
  40236e:	f2 0f 11 54 24 08    	movsd  %xmm2,0x8(%rsp)
  402374:	66 0f 28 c1          	movapd %xmm1,%xmm0
  402378:	f2 0f 11 0c 24       	movsd  %xmm1,(%rsp)
  40237d:	e8 8e 0d 00 00       	callq  403110 <th_printf>
  402382:	f2 0f 10 54 24 08    	movsd  0x8(%rsp),%xmm2
  402388:	bf 08 93 40 00       	mov    $0x409308,%edi
  40238d:	b8 01 00 00 00       	mov    $0x1,%eax
  402392:	66 0f 28 c2          	movapd %xmm2,%xmm0
  402396:	e8 75 0d 00 00       	callq  403110 <th_printf>
  40239b:	f2 0f 10 0c 24       	movsd  (%rsp),%xmm1
  4023a0:	bf 30 93 40 00       	mov    $0x409330,%edi
  4023a5:	f2 0f 10 05 fb 74 00 	movsd  0x74fb(%rip),%xmm0        # 4098a8 <inpCmdROM+0x5488>
  4023ac:	00 
  4023ad:	b8 01 00 00 00       	mov    $0x1,%eax
  4023b2:	f2 0f 5e c1          	divsd  %xmm1,%xmm0
  4023b6:	e8 55 0d 00 00       	callq  403110 <th_printf>
  4023bb:	e9 06 ff ff ff       	jmpq   4022c6 <i_report_results+0x86>
  4023c0:	bf 41 91 40 00       	mov    $0x409141,%edi
  4023c5:	31 c0                	xor    %eax,%eax
  4023c7:	e8 94 fd ff ff       	callq  402160 <t_printf>
  4023cc:	e9 07 ff ff ff       	jmpq   4022d8 <i_report_results+0x98>
  4023d1:	0f 1f 80 00 00 00 00 	nopl   0x0(%rax)
  4023d8:	48 89 c2             	mov    %rax,%rdx
  4023db:	83 e0 01             	and    $0x1,%eax
  4023de:	48 d1 ea             	shr    %rdx
  4023e1:	48 09 c2             	or     %rax,%rdx
  4023e4:	f2 48 0f 2a ca       	cvtsi2sd %rdx,%xmm1
  4023e9:	f2 0f 58 c9          	addsd  %xmm1,%xmm1
  4023ed:	e9 3f ff ff ff       	jmpq   402331 <i_report_results+0xf1>
  4023f2:	66 0f 1f 44 00 00    	nopw   0x0(%rax,%rax,1)
  4023f8:	48 89 c2             	mov    %rax,%rdx
  4023fb:	83 e0 01             	and    $0x1,%eax
  4023fe:	48 d1 ea             	shr    %rdx
  402401:	48 09 c2             	or     %rax,%rdx
  402404:	f2 48 0f 2a c2       	cvtsi2sd %rdx,%xmm0
  402409:	f2 0f 58 c0          	addsd  %xmm0,%xmm0
  40240d:	e9 4a ff ff ff       	jmpq   40235c <i_report_results+0x11c>
  402412:	66 0f 1f 44 00 00    	nopw   0x0(%rax,%rax,1)
  402418:	48 89 ea             	mov    %rbp,%rdx
  40241b:	83 e5 01             	and    $0x1,%ebp
  40241e:	48 d1 ea             	shr    %rdx
  402421:	48 09 ea             	or     %rbp,%rdx
  402424:	f2 48 0f 2a d2       	cvtsi2sd %rdx,%xmm2
  402429:	f2 0f 58 d2          	addsd  %xmm2,%xmm2
  40242d:	e9 1c ff ff ff       	jmpq   40234e <i_report_results+0x10e>
  402432:	66 66 66 66 66 2e 0f 	data32 data32 data32 data32 nopw %cs:0x0(%rax,%rax,1)
  402439:	1f 84 00 00 00 00 00 

0000000000402440 <report_info>:
  402440:	55                   	push   %rbp
  402441:	bf c8 93 40 00       	mov    $0x4093c8,%edi
  402446:	31 c0                	xor    %eax,%eax
  402448:	bd 5f 91 40 00       	mov    $0x40915f,%ebp
  40244d:	53                   	push   %rbx
  40244e:	bb 5b 91 40 00       	mov    $0x40915b,%ebx
  402453:	48 83 ec 08          	sub    $0x8,%rsp
  402457:	e8 04 fd ff ff       	callq  402160 <t_printf>
  40245c:	be d0 b1 60 00       	mov    $0x60b1d0,%esi
  402461:	bf 08 94 40 00       	mov    $0x409408,%edi
  402466:	31 c0                	xor    %eax,%eax
  402468:	e8 f3 fc ff ff       	callq  402160 <t_printf>
  40246d:	be 10 b2 60 00       	mov    $0x60b210,%esi
  402472:	bf 30 94 40 00       	mov    $0x409430,%edi
  402477:	31 c0                	xor    %eax,%eax
  402479:	e8 e2 fc ff ff       	callq  402160 <t_printf>
  40247e:	be 20 b2 60 00       	mov    $0x60b220,%esi
  402483:	bf 58 94 40 00       	mov    $0x409458,%edi
  402488:	31 c0                	xor    %eax,%eax
  40248a:	e8 d1 fc ff ff       	callq  402160 <t_printf>
  40248f:	be 30 b2 60 00       	mov    $0x60b230,%esi
  402494:	bf 80 94 40 00       	mov    $0x409480,%edi
  402499:	31 c0                	xor    %eax,%eax
  40249b:	e8 c0 fc ff ff       	callq  402160 <t_printf>
  4024a0:	8b 05 b2 8d 20 00    	mov    0x208db2(%rip),%eax        # 60b258 <the_thdef+0x98>
  4024a6:	48 89 de             	mov    %rbx,%rsi
  4024a9:	bf a8 94 40 00       	mov    $0x4094a8,%edi
  4024ae:	85 c0                	test   %eax,%eax
  4024b0:	48 0f 44 f5          	cmove  %rbp,%rsi
  4024b4:	31 c0                	xor    %eax,%eax
  4024b6:	e8 a5 fc ff ff       	callq  402160 <t_printf>
  4024bb:	8b 15 9b 8d 20 00    	mov    0x208d9b(%rip),%edx        # 60b25c <the_thdef+0x9c>
  4024c1:	bf d0 94 40 00       	mov    $0x4094d0,%edi
  4024c6:	85 d2                	test   %edx,%edx
  4024c8:	48 0f 44 dd          	cmove  %rbp,%rbx
  4024cc:	31 c0                	xor    %eax,%eax
  4024ce:	48 89 de             	mov    %rbx,%rsi
  4024d1:	e8 8a fc ff ff       	callq  402160 <t_printf>
  4024d6:	e8 65 0e 00 00       	callq  403340 <th_ticks_per_sec>
  4024db:	bf f8 94 40 00       	mov    $0x4094f8,%edi
  4024e0:	48 89 c6             	mov    %rax,%rsi
  4024e3:	31 c0                	xor    %eax,%eax
  4024e5:	e8 76 fc ff ff       	callq  402160 <t_printf>
  4024ea:	e8 61 0e 00 00       	callq  403350 <th_tick_granularity>
  4024ef:	bf 20 95 40 00       	mov    $0x409520,%edi
  4024f4:	48 89 c6             	mov    %rax,%rsi
  4024f7:	31 c0                	xor    %eax,%eax
  4024f9:	e8 62 fc ff ff       	callq  402160 <t_printf>
  4024fe:	48 8b 05 2b 90 20 00 	mov    0x20902b(%rip),%rax        # 60b530 <the_tcdef_ptr>
  402505:	bf 48 95 40 00       	mov    $0x409548,%edi
  40250a:	48 8b b0 a0 00 00 00 	mov    0xa0(%rax),%rsi
  402511:	31 c0                	xor    %eax,%eax
  402513:	e8 48 fc ff ff       	callq  402160 <t_printf>
  402518:	48 8b 05 11 90 20 00 	mov    0x209011(%rip),%rax        # 60b530 <the_tcdef_ptr>
  40251f:	48 8b 35 fa 8f 20 00 	mov    0x208ffa(%rip),%rsi        # 60b520 <iterations>
  402526:	48 39 b0 a0 00 00 00 	cmp    %rsi,0xa0(%rax)
  40252d:	74 13                	je     402542 <report_info+0x102>
  40252f:	bf 70 95 40 00       	mov    $0x409570,%edi
  402534:	31 c0                	xor    %eax,%eax
  402536:	e8 25 fc ff ff       	callq  402160 <t_printf>
  40253b:	48 8b 05 ee 8f 20 00 	mov    0x208fee(%rip),%rax        # 60b530 <the_tcdef_ptr>
  402542:	48 83 c4 08          	add    $0x8,%rsp
  402546:	48 8d 70 40          	lea    0x40(%rax),%rsi
  40254a:	bf 98 95 40 00       	mov    $0x409598,%edi
  40254f:	5b                   	pop    %rbx
  402550:	5d                   	pop    %rbp
  402551:	31 c0                	xor    %eax,%eax
  402553:	e9 08 fc ff ff       	jmpq   402160 <t_printf>
  402558:	0f 1f 84 00 00 00 00 	nopl   0x0(%rax,%rax,1)
  40255f:	00 

0000000000402560 <t_sprintf>:
  402560:	48 81 ec d8 00 00 00 	sub    $0xd8,%rsp
  402567:	84 c0                	test   %al,%al
  402569:	48 89 54 24 30       	mov    %rdx,0x30(%rsp)
  40256e:	48 89 4c 24 38       	mov    %rcx,0x38(%rsp)
  402573:	4c 89 44 24 40       	mov    %r8,0x40(%rsp)
  402578:	4c 89 4c 24 48       	mov    %r9,0x48(%rsp)
  40257d:	74 37                	je     4025b6 <t_sprintf+0x56>
  40257f:	0f 29 44 24 50       	movaps %xmm0,0x50(%rsp)
  402584:	0f 29 4c 24 60       	movaps %xmm1,0x60(%rsp)
  402589:	0f 29 54 24 70       	movaps %xmm2,0x70(%rsp)
  40258e:	0f 29 9c 24 80 00 00 	movaps %xmm3,0x80(%rsp)
  402595:	00 
  402596:	0f 29 a4 24 90 00 00 	movaps %xmm4,0x90(%rsp)
  40259d:	00 
  40259e:	0f 29 ac 24 a0 00 00 	movaps %xmm5,0xa0(%rsp)
  4025a5:	00 
  4025a6:	0f 29 b4 24 b0 00 00 	movaps %xmm6,0xb0(%rsp)
  4025ad:	00 
  4025ae:	0f 29 bc 24 c0 00 00 	movaps %xmm7,0xc0(%rsp)
  4025b5:	00 
  4025b6:	48 8d 84 24 e0 00 00 	lea    0xe0(%rsp),%rax
  4025bd:	00 
  4025be:	4c 8d 44 24 08       	lea    0x8(%rsp),%r8
  4025c3:	48 89 f1             	mov    %rsi,%rcx
  4025c6:	48 c7 c2 ff ff ff ff 	mov    $0xffffffffffffffff,%rdx
  4025cd:	be 01 00 00 00       	mov    $0x1,%esi
  4025d2:	48 89 44 24 10       	mov    %rax,0x10(%rsp)
  4025d7:	48 8d 44 24 20       	lea    0x20(%rsp),%rax
  4025dc:	c7 44 24 08 10 00 00 	movl   $0x10,0x8(%rsp)
  4025e3:	00 
  4025e4:	c7 44 24 0c 30 00 00 	movl   $0x30,0xc(%rsp)
  4025eb:	00 
  4025ec:	48 89 44 24 18       	mov    %rax,0x18(%rsp)
  4025f1:	e8 6a e4 ff ff       	callq  400a60 <__vsprintf_chk@plt>
  4025f6:	48 81 c4 d8 00 00 00 	add    $0xd8,%rsp
  4025fd:	c3                   	retq   
  4025fe:	66 90                	xchg   %ax,%ax

0000000000402600 <t_exit>:
  402600:	48 81 ec d8 00 00 00 	sub    $0xd8,%rsp
  402607:	84 c0                	test   %al,%al
  402609:	48 89 54 24 30       	mov    %rdx,0x30(%rsp)
  40260e:	48 89 4c 24 38       	mov    %rcx,0x38(%rsp)
  402613:	4c 89 44 24 40       	mov    %r8,0x40(%rsp)
  402618:	4c 89 4c 24 48       	mov    %r9,0x48(%rsp)
  40261d:	74 37                	je     402656 <t_exit+0x56>
  40261f:	0f 29 44 24 50       	movaps %xmm0,0x50(%rsp)
  402624:	0f 29 4c 24 60       	movaps %xmm1,0x60(%rsp)
  402629:	0f 29 54 24 70       	movaps %xmm2,0x70(%rsp)
  40262e:	0f 29 9c 24 80 00 00 	movaps %xmm3,0x80(%rsp)
  402635:	00 
  402636:	0f 29 a4 24 90 00 00 	movaps %xmm4,0x90(%rsp)
  40263d:	00 
  40263e:	0f 29 ac 24 a0 00 00 	movaps %xmm5,0xa0(%rsp)
  402645:	00 
  402646:	0f 29 b4 24 b0 00 00 	movaps %xmm6,0xb0(%rsp)
  40264d:	00 
  40264e:	0f 29 bc 24 c0 00 00 	movaps %xmm7,0xc0(%rsp)
  402655:	00 
  402656:	48 8d 84 24 e0 00 00 	lea    0xe0(%rsp),%rax
  40265d:	00 
  40265e:	48 8d 54 24 08       	lea    0x8(%rsp),%rdx
  402663:	48 89 44 24 10       	mov    %rax,0x10(%rsp)
  402668:	48 8d 44 24 20       	lea    0x20(%rsp),%rax
  40266d:	c7 44 24 08 10 00 00 	movl   $0x10,0x8(%rsp)
  402674:	00 
  402675:	c7 44 24 0c 30 00 00 	movl   $0x30,0xc(%rsp)
  40267c:	00 
  40267d:	48 89 44 24 18       	mov    %rax,0x18(%rsp)
  402682:	e8 c9 f5 ff ff       	callq  401c50 <al_exit>
  402687:	48 81 c4 d8 00 00 00 	add    $0xd8,%rsp
  40268e:	c3                   	retq   
  40268f:	90                   	nop

0000000000402690 <efn>:
  402690:	0f b6 17             	movzbl (%rdi),%edx
  402693:	48 89 f8             	mov    %rdi,%rax
  402696:	84 d2                	test   %dl,%dl
  402698:	74 2e                	je     4026c8 <efn+0x38>
  40269a:	48 8d 4f 01          	lea    0x1(%rdi),%rcx
  40269e:	eb 15                	jmp    4026b5 <efn+0x25>
  4026a0:	80 fa 5c             	cmp    $0x5c,%dl
  4026a3:	74 15                	je     4026ba <efn+0x2a>
  4026a5:	80 fa 3a             	cmp    $0x3a,%dl
  4026a8:	74 10                	je     4026ba <efn+0x2a>
  4026aa:	0f b6 11             	movzbl (%rcx),%edx
  4026ad:	48 83 c1 01          	add    $0x1,%rcx
  4026b1:	84 d2                	test   %dl,%dl
  4026b3:	74 13                	je     4026c8 <efn+0x38>
  4026b5:	80 fa 2f             	cmp    $0x2f,%dl
  4026b8:	75 e6                	jne    4026a0 <efn+0x10>
  4026ba:	0f b6 11             	movzbl (%rcx),%edx
  4026bd:	48 89 c8             	mov    %rcx,%rax
  4026c0:	48 83 c1 01          	add    $0x1,%rcx
  4026c4:	84 d2                	test   %dl,%dl
  4026c6:	75 ed                	jne    4026b5 <efn+0x25>
  4026c8:	f3 c3                	repz retq 
  4026ca:	66 0f 1f 44 00 00    	nopw   0x0(%rax,%rax,1)

00000000004026d0 <th_main>:
  4026d0:	41 57                	push   %r15
  4026d2:	41 56                	push   %r14
  4026d4:	41 55                	push   %r13
  4026d6:	49 89 f5             	mov    %rsi,%r13
  4026d9:	41 54                	push   %r12
  4026db:	55                   	push   %rbp
  4026dc:	89 fd                	mov    %edi,%ebp
  4026de:	bf c0 95 40 00       	mov    $0x4095c0,%edi
  4026e3:	53                   	push   %rbx
  4026e4:	48 83 ec 48          	sub    $0x48,%rsp
  4026e8:	64 48 8b 04 25 28 00 	mov    %fs:0x28,%rax
  4026ef:	00 00 
  4026f1:	48 89 44 24 38       	mov    %rax,0x38(%rsp)
  4026f6:	31 c0                	xor    %eax,%eax
  4026f8:	e8 63 fa ff ff       	callq  402160 <t_printf>
  4026fd:	be d0 b1 60 00       	mov    $0x60b1d0,%esi
  402702:	bf 73 91 40 00       	mov    $0x409173,%edi
  402707:	31 c0                	xor    %eax,%eax
  402709:	e8 52 fa ff ff       	callq  402160 <t_printf>
  40270e:	4c 89 e9             	mov    %r13,%rcx
  402711:	89 ea                	mov    %ebp,%edx
  402713:	be 30 b5 60 00       	mov    $0x60b530,%esi
  402718:	bf c0 b1 60 00       	mov    $0x60b1c0,%edi
  40271d:	e8 6e 09 00 00       	callq  403090 <thlib_main>
  402722:	85 c0                	test   %eax,%eax
  402724:	89 c3                	mov    %eax,%ebx
  402726:	0f 84 8a 00 00 00    	je     4027b6 <th_main+0xe6>
  40272c:	be 62 91 40 00       	mov    $0x409162,%esi
  402731:	ba 2e 00 00 00       	mov    $0x2e,%edx
  402736:	48 89 f1             	mov    %rsi,%rcx
  402739:	eb 1a                	jmp    402755 <th_main+0x85>
  40273b:	0f 1f 44 00 00       	nopl   0x0(%rax,%rax,1)
  402740:	80 fa 5c             	cmp    $0x5c,%dl
  402743:	74 15                	je     40275a <th_main+0x8a>
  402745:	80 fa 3a             	cmp    $0x3a,%dl
  402748:	74 10                	je     40275a <th_main+0x8a>
  40274a:	48 83 c1 01          	add    $0x1,%rcx
  40274e:	0f b6 11             	movzbl (%rcx),%edx
  402751:	84 d2                	test   %dl,%dl
  402753:	74 13                	je     402768 <th_main+0x98>
  402755:	80 fa 2f             	cmp    $0x2f,%dl
  402758:	75 e6                	jne    402740 <th_main+0x70>
  40275a:	48 8d 71 01          	lea    0x1(%rcx),%rsi
  40275e:	48 89 f1             	mov    %rsi,%rcx
  402761:	0f b6 11             	movzbl (%rcx),%edx
  402764:	84 d2                	test   %dl,%dl
  402766:	75 ed                	jne    402755 <th_main+0x85>
  402768:	ba 37 05 00 00       	mov    $0x537,%edx
  40276d:	bf 7e 91 40 00       	mov    $0x40917e,%edi
  402772:	31 c0                	xor    %eax,%eax
  402774:	e8 e7 f9 ff ff       	callq  402160 <t_printf>
  402779:	bf e8 95 40 00       	mov    $0x4095e8,%edi
  40277e:	31 c0                	xor    %eax,%eax
  402780:	e8 db f9 ff ff       	callq  402160 <t_printf>
  402785:	bf 96 91 40 00       	mov    $0x409196,%edi
  40278a:	31 c0                	xor    %eax,%eax
  40278c:	e8 cf f9 ff ff       	callq  402160 <t_printf>
  402791:	89 d8                	mov    %ebx,%eax
  402793:	48 8b 5c 24 38       	mov    0x38(%rsp),%rbx
  402798:	64 48 33 1c 25 28 00 	xor    %fs:0x28,%rbx
  40279f:	00 00 
  4027a1:	0f 85 43 07 00 00    	jne    402eea <th_main+0x81a>
  4027a7:	48 83 c4 48          	add    $0x48,%rsp
  4027ab:	5b                   	pop    %rbx
  4027ac:	5d                   	pop    %rbp
  4027ad:	41 5c                	pop    %r12
  4027af:	41 5d                	pop    %r13
  4027b1:	41 5e                	pop    %r14
  4027b3:	41 5f                	pop    %r15
  4027b5:	c3                   	retq   
  4027b6:	48 8b 05 73 8d 20 00 	mov    0x208d73(%rip),%rax        # 60b530 <the_tcdef_ptr>
  4027bd:	85 ed                	test   %ebp,%ebp
  4027bf:	48 8b 80 a0 00 00 00 	mov    0xa0(%rax),%rax
  4027c6:	48 89 05 53 8d 20 00 	mov    %rax,0x208d53(%rip)        # 60b520 <iterations>
  4027cd:	0f 8e 5d 04 00 00    	jle    402c30 <th_main+0x560>
  4027d3:	49 8b 45 00          	mov    0x0(%r13),%rax
  4027d7:	83 fd 01             	cmp    $0x1,%ebp
  4027da:	48 89 05 57 8d 20 00 	mov    %rax,0x208d57(%rip)        # 60b538 <argv0_pgm>
  4027e1:	0f 8e 54 04 00 00    	jle    402c3b <th_main+0x56b>
  4027e7:	8d 45 ff             	lea    -0x1(%rbp),%eax
  4027ea:	4d 8d 75 08          	lea    0x8(%r13),%r14
  4027ee:	41 bf 01 00 00 00    	mov    $0x1,%r15d
  4027f4:	41 bc b8 91 40 00    	mov    $0x4091b8,%r12d
  4027fa:	89 44 24 04          	mov    %eax,0x4(%rsp)
  4027fe:	eb 11                	jmp    402811 <th_main+0x141>
  402800:	41 83 c7 01          	add    $0x1,%r15d
  402804:	49 83 c6 08          	add    $0x8,%r14
  402808:	41 39 ef             	cmp    %ebp,%r15d
  40280b:	0f 84 f5 00 00 00    	je     402906 <th_main+0x236>
  402811:	49 8b 1e             	mov    (%r14),%rbx
  402814:	b9 08 00 00 00       	mov    $0x8,%ecx
  402819:	bf b0 91 40 00       	mov    $0x4091b0,%edi
  40281e:	48 89 de             	mov    %rbx,%rsi
  402821:	f3 a6                	repz cmpsb %es:(%rdi),%ds:(%rsi)
  402823:	74 0f                	je     402834 <th_main+0x164>
  402825:	b9 08 00 00 00       	mov    $0x8,%ecx
  40282a:	48 89 de             	mov    %rbx,%rsi
  40282d:	4c 89 e7             	mov    %r12,%rdi
  402830:	f3 a6                	repz cmpsb %es:(%rdi),%ds:(%rsi)
  402832:	75 0a                	jne    40283e <th_main+0x16e>
  402834:	c7 05 ea 8c 20 00 01 	movl   $0x1,0x208cea(%rip)        # 60b528 <autogo>
  40283b:	00 00 00 
  40283e:	80 3b 2d             	cmpb   $0x2d,(%rbx)
  402841:	75 bd                	jne    402800 <th_main+0x130>
  402843:	e8 f8 e0 ff ff       	callq  400940 <__ctype_toupper_loc@plt>
  402848:	48 0f be 53 01       	movsbq 0x1(%rbx),%rdx
  40284d:	48 8b 00             	mov    (%rax),%rax
  402850:	83 3c 90 49          	cmpl   $0x49,(%rax,%rdx,4)
  402854:	75 aa                	jne    402800 <th_main+0x130>
  402856:	4c 8d 53 02          	lea    0x2(%rbx),%r10
  40285a:	bf c0 91 40 00       	mov    $0x4091c0,%edi
  40285f:	b9 08 00 00 00       	mov    $0x8,%ecx
  402864:	4c 89 d6             	mov    %r10,%rsi
  402867:	f3 a6                	repz cmpsb %es:(%rdi),%ds:(%rsi)
  402869:	74 69                	je     4028d4 <th_main+0x204>
  40286b:	bf c8 91 40 00       	mov    $0x4091c8,%edi
  402870:	b9 08 00 00 00       	mov    $0x8,%ecx
  402875:	4c 89 d6             	mov    %r10,%rsi
  402878:	f3 a6                	repz cmpsb %es:(%rdi),%ds:(%rsi)
  40287a:	74 58                	je     4028d4 <th_main+0x204>
  40287c:	4c 89 54 24 08       	mov    %r10,0x8(%rsp)
  402881:	e8 ea e1 ff ff       	callq  400a70 <__ctype_b_loc@plt>
  402886:	48 0f be 53 02       	movsbq 0x2(%rbx),%rdx
  40288b:	48 8b 00             	mov    (%rax),%rax
  40288e:	4c 8b 54 24 08       	mov    0x8(%rsp),%r10
  402893:	f6 44 50 01 08       	testb  $0x8,0x1(%rax,%rdx,2)
  402898:	0f 85 5d 05 00 00    	jne    402dfb <th_main+0x72b>
  40289e:	44 39 7c 24 04       	cmp    %r15d,0x4(%rsp)
  4028a3:	0f 8e 57 ff ff ff    	jle    402800 <th_main+0x130>
  4028a9:	49 8b 7e 08          	mov    0x8(%r14),%rdi
  4028ad:	48 0f be 17          	movsbq (%rdi),%rdx
  4028b1:	f6 44 50 01 08       	testb  $0x8,0x1(%rax,%rdx,2)
  4028b6:	0f 84 44 ff ff ff    	je     402800 <th_main+0x130>
  4028bc:	ba 0a 00 00 00       	mov    $0xa,%edx
  4028c1:	31 f6                	xor    %esi,%esi
  4028c3:	e8 38 e1 ff ff       	callq  400a00 <strtol@plt>
  4028c8:	48 89 05 51 8c 20 00 	mov    %rax,0x208c51(%rip)        # 60b520 <iterations>
  4028cf:	e9 2c ff ff ff       	jmpq   402800 <th_main+0x130>
  4028d4:	31 c0                	xor    %eax,%eax
  4028d6:	bf 20 96 40 00       	mov    $0x409620,%edi
  4028db:	41 83 c7 01          	add    $0x1,%r15d
  4028df:	e8 7c f8 ff ff       	callq  402160 <t_printf>
  4028e4:	48 8b 05 45 8c 20 00 	mov    0x208c45(%rip),%rax        # 60b530 <the_tcdef_ptr>
  4028eb:	49 83 c6 08          	add    $0x8,%r14
  4028ef:	41 39 ef             	cmp    %ebp,%r15d
  4028f2:	48 8b 80 a0 00 00 00 	mov    0xa0(%rax),%rax
  4028f9:	48 89 05 20 8c 20 00 	mov    %rax,0x208c20(%rip)        # 60b520 <iterations>
  402900:	0f 85 0b ff ff ff    	jne    402811 <th_main+0x141>
  402906:	e8 f5 0e 00 00       	callq  403800 <mem_mgr_init>
  40290b:	c6 05 6e 94 20 00 00 	movb   $0x0,0x20946e(%rip)        # 60bd80 <inbuf>
  402912:	8d 45 ff             	lea    -0x1(%rbp),%eax
  402915:	bb 01 00 00 00       	mov    $0x1,%ebx
  40291a:	89 44 24 04          	mov    %eax,0x4(%rsp)
  40291e:	66 90                	xchg   %ax,%ax
  402920:	48 63 c3             	movslq %ebx,%rax
  402923:	b9 08 00 00 00       	mov    $0x8,%ecx
  402928:	4c 89 e7             	mov    %r12,%rdi
  40292b:	4d 8b 74 c5 00       	mov    0x0(%r13,%rax,8),%r14
  402930:	4c 8d 3c c5 00 00 00 	lea    0x0(,%rax,8),%r15
  402937:	00 
  402938:	4c 89 f6             	mov    %r14,%rsi
  40293b:	f3 a6                	repz cmpsb %es:(%rdi),%ds:(%rsi)
  40293d:	74 54                	je     402993 <th_main+0x2c3>
  40293f:	bf b0 91 40 00       	mov    $0x4091b0,%edi
  402944:	b9 08 00 00 00       	mov    $0x8,%ecx
  402949:	4c 89 f6             	mov    %r14,%rsi
  40294c:	f3 a6                	repz cmpsb %es:(%rdi),%ds:(%rsi)
  40294e:	74 43                	je     402993 <th_main+0x2c3>
  402950:	41 80 3e 2d          	cmpb   $0x2d,(%r14)
  402954:	75 17                	jne    40296d <th_main+0x29d>
  402956:	e8 e5 df ff ff       	callq  400940 <__ctype_toupper_loc@plt>
  40295b:	49 0f be 56 01       	movsbq 0x1(%r14),%rdx
  402960:	48 8b 00             	mov    (%rax),%rax
  402963:	83 3c 90 49          	cmpl   $0x49,(%rax,%rdx,4)
  402967:	0f 84 e8 02 00 00    	je     402c55 <th_main+0x585>
  40296d:	ba 11 04 00 00       	mov    $0x411,%edx
  402972:	4c 89 f6             	mov    %r14,%rsi
  402975:	bf 80 bd 60 00       	mov    $0x60bd80,%edi
  40297a:	e8 d1 df ff ff       	callq  400950 <__strcat_chk@plt>
  40297f:	ba 11 04 00 00       	mov    $0x411,%edx
  402984:	be f0 99 40 00       	mov    $0x4099f0,%esi
  402989:	bf 80 bd 60 00       	mov    $0x60bd80,%edi
  40298e:	e8 bd df ff ff       	callq  400950 <__strcat_chk@plt>
  402993:	83 c3 01             	add    $0x1,%ebx
  402996:	39 dd                	cmp    %ebx,%ebp
  402998:	7f 86                	jg     402920 <th_main+0x250>
  40299a:	bf 80 bd 60 00       	mov    $0x60bd80,%edi
  40299f:	e8 fc f4 ff ff       	callq  401ea0 <set_cmd_line>
  4029a4:	48 8b 05 85 8b 20 00 	mov    0x208b85(%rip),%rax        # 60b530 <the_tcdef_ptr>
  4029ab:	bf d0 91 40 00       	mov    $0x4091d0,%edi
  4029b0:	48 8d 70 40          	lea    0x40(%rax),%rsi
  4029b4:	31 c0                	xor    %eax,%eax
  4029b6:	e8 a5 f7 ff ff       	callq  402160 <t_printf>
  4029bb:	48 8b 35 6e 8b 20 00 	mov    0x208b6e(%rip),%rsi        # 60b530 <the_tcdef_ptr>
  4029c2:	31 c0                	xor    %eax,%eax
  4029c4:	bf db 91 40 00       	mov    $0x4091db,%edi
  4029c9:	e8 92 f7 ff ff       	callq  402160 <t_printf>
  4029ce:	8b 15 54 8b 20 00    	mov    0x208b54(%rip),%edx        # 60b528 <autogo>
  4029d4:	85 d2                	test   %edx,%edx
  4029d6:	0f 84 8f 00 00 00    	je     402a6b <th_main+0x39b>
  4029dc:	83 3d 1d 89 20 00 02 	cmpl   $0x2,0x20891d(%rip)        # 60b300 <state.2964>
  4029e3:	0f 84 3b 02 00 00    	je     402c24 <th_main+0x554>
  4029e9:	bf f6 92 40 00       	mov    $0x4092f6,%edi
  4029ee:	31 c0                	xor    %eax,%eax
  4029f0:	e8 6b f7 ff ff       	callq  402160 <t_printf>
  4029f5:	31 c0                	xor    %eax,%eax
  4029f7:	e9 97 fd ff ff       	jmpq   402793 <th_main+0xc3>
  4029fc:	be 85 92 40 00       	mov    $0x409285,%esi
  402a01:	48 89 ef             	mov    %rbp,%rdi
  402a04:	e8 07 18 00 00       	callq  404210 <str_icmp>
  402a09:	85 c0                	test   %eax,%eax
  402a0b:	0f 84 2a 06 00 00    	je     40303b <th_main+0x96b>
  402a11:	be 89 92 40 00       	mov    $0x409289,%esi
  402a16:	48 89 ef             	mov    %rbp,%rdi
  402a19:	e8 f2 17 00 00       	callq  404210 <str_icmp>
  402a1e:	85 c0                	test   %eax,%eax
  402a20:	0f 84 d7 05 00 00    	je     402ffd <th_main+0x92d>
  402a26:	be 98 92 40 00       	mov    $0x409298,%esi
  402a2b:	48 89 ef             	mov    %rbp,%rdi
  402a2e:	e8 dd 17 00 00       	callq  404210 <str_icmp>
  402a33:	85 c0                	test   %eax,%eax
  402a35:	0f 85 0c 05 00 00    	jne    402f47 <th_main+0x877>
  402a3b:	bf 9c 92 40 00       	mov    $0x40929c,%edi
  402a40:	e8 1b f7 ff ff       	callq  402160 <t_printf>
  402a45:	31 ff                	xor    %edi,%edi
  402a47:	e8 74 11 00 00       	callq  403bc0 <mem_get_file_num>
  402a4c:	48 85 c0             	test   %rax,%rax
  402a4f:	0f 84 e3 04 00 00    	je     402f38 <th_main+0x868>
  402a55:	48 8b b0 80 00 00 00 	mov    0x80(%rax),%rsi
  402a5c:	48 8b b8 88 00 00 00 	mov    0x88(%rax),%rdi
  402a63:	48 89 c2             	mov    %rax,%rdx
  402a66:	e8 55 0d 00 00       	callq  4037c0 <uu_send_buf>
  402a6b:	bf e7 91 40 00       	mov    $0x4091e7,%edi
  402a70:	31 c0                	xor    %eax,%eax
  402a72:	31 db                	xor    %ebx,%ebx
  402a74:	e8 e7 f6 ff ff       	callq  402160 <t_printf>
  402a79:	0f 1f 80 00 00 00 00 	nopl   0x0(%rax)
  402a80:	e8 5b f1 ff ff       	callq  401be0 <al_con_chars_avail>
  402a85:	48 85 c0             	test   %rax,%rax
  402a88:	74 f6                	je     402a80 <th_main+0x3b0>
  402a8a:	48 8d 7c 24 1f       	lea    0x1f(%rsp),%rdi
  402a8f:	be 01 00 00 00       	mov    $0x1,%esi
  402a94:	e8 d7 f0 ff ff       	callq  401b70 <al_read_con>
  402a99:	0f b6 44 24 1f       	movzbl 0x1f(%rsp),%eax
  402a9e:	8d 50 e0             	lea    -0x20(%rax),%edx
  402aa1:	80 fa 5e             	cmp    $0x5e,%dl
  402aa4:	77 08                	ja     402aae <th_main+0x3de>
  402aa6:	81 fb 0f 04 00 00    	cmp    $0x40f,%ebx
  402aac:	7e 1a                	jle    402ac8 <th_main+0x3f8>
  402aae:	3c 0d                	cmp    $0xd,%al
  402ab0:	74 44                	je     402af6 <th_main+0x426>
  402ab2:	3c 0a                	cmp    $0xa,%al
  402ab4:	74 40                	je     402af6 <th_main+0x426>
  402ab6:	3c 1b                	cmp    $0x1b,%al
  402ab8:	75 c6                	jne    402a80 <th_main+0x3b0>
  402aba:	66 0f 1f 44 00 00    	nopw   0x0(%rax,%rax,1)
  402ac0:	e9 24 ff ff ff       	jmpq   4029e9 <th_main+0x319>
  402ac5:	0f 1f 00             	nopl   (%rax)
  402ac8:	8d 6b 01             	lea    0x1(%rbx),%ebp
  402acb:	48 8d 7c 24 1f       	lea    0x1f(%rsp),%rdi
  402ad0:	88 83 80 bd 60 00    	mov    %al,0x60bd80(%rbx)
  402ad6:	be 01 00 00 00       	mov    $0x1,%esi
  402adb:	48 63 c5             	movslq %ebp,%rax
  402ade:	48 63 dd             	movslq %ebp,%rbx
  402ae1:	c6 80 80 bd 60 00 00 	movb   $0x0,0x60bd80(%rax)
  402ae8:	e8 53 f0 ff ff       	callq  401b40 <al_write_con>
  402aed:	0f b6 44 24 1f       	movzbl 0x1f(%rsp),%eax
  402af2:	3c 0d                	cmp    $0xd,%al
  402af4:	75 bc                	jne    402ab2 <th_main+0x3e2>
  402af6:	bf ae 91 40 00       	mov    $0x4091ae,%edi
  402afb:	31 c0                	xor    %eax,%eax
  402afd:	e8 5e f6 ff ff       	callq  402160 <t_printf>
  402b02:	e8 69 df ff ff       	callq  400a70 <__ctype_b_loc@plt>
  402b07:	ba 80 bd 60 00       	mov    $0x60bd80,%edx
  402b0c:	49 89 c4             	mov    %rax,%r12
  402b0f:	48 8b 00             	mov    (%rax),%rax
  402b12:	eb 08                	jmp    402b1c <th_main+0x44c>
  402b14:	0f 1f 40 00          	nopl   0x0(%rax)
  402b18:	48 83 c2 01          	add    $0x1,%rdx
  402b1c:	0f b6 32             	movzbl (%rdx),%esi
  402b1f:	48 0f be ce          	movsbq %sil,%rcx
  402b23:	f6 44 48 01 20       	testb  $0x20,0x1(%rax,%rcx,2)
  402b28:	75 ee                	jne    402b18 <th_main+0x448>
  402b2a:	40 84 f6             	test   %sil,%sil
  402b2d:	0f 84 b7 02 00 00    	je     402dea <th_main+0x71a>
  402b33:	48 8d 6c 24 20       	lea    0x20(%rsp),%rbp
  402b38:	48 83 c2 01          	add    $0x1,%rdx
  402b3c:	31 c9                	xor    %ecx,%ecx
  402b3e:	48 89 ef             	mov    %rbp,%rdi
  402b41:	eb 1b                	jmp    402b5e <th_main+0x48e>
  402b43:	0f 1f 44 00 00       	nopl   0x0(%rax,%rax,1)
  402b48:	83 c1 01             	add    $0x1,%ecx
  402b4b:	83 f9 0f             	cmp    $0xf,%ecx
  402b4e:	7f 07                	jg     402b57 <th_main+0x487>
  402b50:	40 88 37             	mov    %sil,(%rdi)
  402b53:	48 83 c7 01          	add    $0x1,%rdi
  402b57:	0f b6 32             	movzbl (%rdx),%esi
  402b5a:	48 83 c2 01          	add    $0x1,%rdx
  402b5e:	44 8d 46 df          	lea    -0x21(%rsi),%r8d
  402b62:	48 8d 5a ff          	lea    -0x1(%rdx),%rbx
  402b66:	41 80 f8 5d          	cmp    $0x5d,%r8b
  402b6a:	76 dc                	jbe    402b48 <th_main+0x478>
  402b6c:	c6 07 00             	movb   $0x0,(%rdi)
  402b6f:	be ee 91 40 00       	mov    $0x4091ee,%esi
  402b74:	48 89 ef             	mov    %rbp,%rdi
  402b77:	e8 94 16 00 00       	callq  404210 <str_icmp>
  402b7c:	85 c0                	test   %eax,%eax
  402b7e:	75 30                	jne    402bb0 <th_main+0x4e0>
  402b80:	0f b6 03             	movzbl (%rbx),%eax
  402b83:	84 c0                	test   %al,%al
  402b85:	74 27                	je     402bae <th_main+0x4de>
  402b87:	8d 50 d0             	lea    -0x30(%rax),%edx
  402b8a:	80 fa 09             	cmp    $0x9,%dl
  402b8d:	77 14                	ja     402ba3 <th_main+0x4d3>
  402b8f:	e9 2d 01 00 00       	jmpq   402cc1 <th_main+0x5f1>
  402b94:	0f 1f 40 00          	nopl   0x0(%rax)
  402b98:	8d 42 d0             	lea    -0x30(%rdx),%eax
  402b9b:	3c 09                	cmp    $0x9,%al
  402b9d:	0f 86 20 01 00 00    	jbe    402cc3 <th_main+0x5f3>
  402ba3:	48 83 c3 01          	add    $0x1,%rbx
  402ba7:	0f b6 13             	movzbl (%rbx),%edx
  402baa:	84 d2                	test   %dl,%dl
  402bac:	75 ea                	jne    402b98 <th_main+0x4c8>
  402bae:	31 db                	xor    %ebx,%ebx
  402bb0:	be 05 92 40 00       	mov    $0x409205,%esi
  402bb5:	48 89 ef             	mov    %rbp,%rdi
  402bb8:	e8 53 16 00 00       	callq  404210 <str_icmp>
  402bbd:	85 c0                	test   %eax,%eax
  402bbf:	0f 85 6f 01 00 00    	jne    402d34 <th_main+0x664>
  402bc5:	bf ae 91 40 00       	mov    $0x4091ae,%edi
  402bca:	31 c0                	xor    %eax,%eax
  402bcc:	e8 8f f5 ff ff       	callq  402160 <t_printf>
  402bd1:	e8 6a f8 ff ff       	callq  402440 <report_info>
  402bd6:	e8 b5 0c 00 00       	callq  403890 <mem_heap_initialize>
  402bdb:	48 8b 05 4e 89 20 00 	mov    0x20894e(%rip),%rax        # 60b530 <the_tcdef_ptr>
  402be2:	ba 60 b5 60 00       	mov    $0x60b560,%edx
  402be7:	8b 35 53 89 20 00    	mov    0x208953(%rip),%esi        # 60b540 <argca>
  402bed:	48 8b 3d 2c 89 20 00 	mov    0x20892c(%rip),%rdi        # 60b520 <iterations>
  402bf4:	ff 90 a8 00 00 00    	callq  *0xa8(%rax)
  402bfa:	85 c0                	test   %eax,%eax
  402bfc:	74 18                	je     402c16 <th_main+0x546>
  402bfe:	89 c6                	mov    %eax,%esi
  402c00:	bf e6 92 40 00       	mov    $0x4092e6,%edi
  402c05:	31 c0                	xor    %eax,%eax
  402c07:	e8 54 f5 ff ff       	callq  402160 <t_printf>
  402c0c:	e8 cf f0 ff ff       	callq  401ce0 <al_report_results>
  402c11:	e9 8e fd ff ff       	jmpq   4029a4 <th_main+0x2d4>
  402c16:	bf dc 92 40 00       	mov    $0x4092dc,%edi
  402c1b:	31 c0                	xor    %eax,%eax
  402c1d:	e8 3e f5 ff ff       	callq  402160 <t_printf>
  402c22:	eb e8                	jmp    402c0c <th_main+0x53c>
  402c24:	c7 05 d2 86 20 00 03 	movl   $0x3,0x2086d2(%rip)        # 60b300 <state.2964>
  402c2b:	00 00 00 
  402c2e:	eb a6                	jmp    402bd6 <th_main+0x506>
  402c30:	48 c7 05 fd 88 20 00 	movq   $0x0,0x2088fd(%rip)        # 60b538 <argv0_pgm>
  402c37:	00 00 00 00 
  402c3b:	e8 c0 0b 00 00       	callq  403800 <mem_mgr_init>
  402c40:	85 ed                	test   %ebp,%ebp
  402c42:	0f 85 c6 02 00 00    	jne    402f0e <th_main+0x83e>
  402c48:	31 ff                	xor    %edi,%edi
  402c4a:	e8 51 f2 ff ff       	callq  401ea0 <set_cmd_line>
  402c4f:	90                   	nop
  402c50:	e9 4f fd ff ff       	jmpq   4029a4 <th_main+0x2d4>
  402c55:	49 8d 46 02          	lea    0x2(%r14),%rax
  402c59:	bf c0 91 40 00       	mov    $0x4091c0,%edi
  402c5e:	b9 08 00 00 00       	mov    $0x8,%ecx
  402c63:	48 89 c6             	mov    %rax,%rsi
  402c66:	f3 a6                	repz cmpsb %es:(%rdi),%ds:(%rsi)
  402c68:	0f 84 25 fd ff ff    	je     402993 <th_main+0x2c3>
  402c6e:	bf c8 91 40 00       	mov    $0x4091c8,%edi
  402c73:	b9 08 00 00 00       	mov    $0x8,%ecx
  402c78:	48 89 c6             	mov    %rax,%rsi
  402c7b:	f3 a6                	repz cmpsb %es:(%rdi),%ds:(%rsi)
  402c7d:	0f 84 10 fd ff ff    	je     402993 <th_main+0x2c3>
  402c83:	e8 e8 dd ff ff       	callq  400a70 <__ctype_b_loc@plt>
  402c88:	49 0f be 56 02       	movsbq 0x2(%r14),%rdx
  402c8d:	48 8b 00             	mov    (%rax),%rax
  402c90:	f6 44 50 01 08       	testb  $0x8,0x1(%rax,%rdx,2)
  402c95:	0f 85 f8 fc ff ff    	jne    402993 <th_main+0x2c3>
  402c9b:	39 5c 24 04          	cmp    %ebx,0x4(%rsp)
  402c9f:	0f 8e c8 fc ff ff    	jle    40296d <th_main+0x29d>
  402ca5:	4b 8b 54 3d 08       	mov    0x8(%r13,%r15,1),%rdx
  402caa:	48 0f be 12          	movsbq (%rdx),%rdx
  402cae:	f6 44 50 01 08       	testb  $0x8,0x1(%rax,%rdx,2)
  402cb3:	0f 84 b4 fc ff ff    	je     40296d <th_main+0x29d>
  402cb9:	83 c3 01             	add    $0x1,%ebx
  402cbc:	e9 d2 fc ff ff       	jmpq   402993 <th_main+0x2c3>
  402cc1:	89 c2                	mov    %eax,%edx
  402cc3:	49 8b 3c 24          	mov    (%r12),%rdi
  402cc7:	48 0f be c2          	movsbq %dl,%rax
  402ccb:	f6 44 47 01 08       	testb  $0x8,0x1(%rdi,%rax,2)
  402cd0:	0f 84 ee 00 00 00    	je     402dc4 <th_main+0x6f4>
  402cd6:	4c 8d 43 0a          	lea    0xa(%rbx),%r8
  402cda:	89 d1                	mov    %edx,%ecx
  402cdc:	48 89 d8             	mov    %rbx,%rax
  402cdf:	31 d2                	xor    %edx,%edx
  402ce1:	0f 1f 80 00 00 00 00 	nopl   0x0(%rax)
  402ce8:	48 83 c0 01          	add    $0x1,%rax
  402cec:	48 8d 34 92          	lea    (%rdx,%rdx,4),%rsi
  402cf0:	0f be d1             	movsbl %cl,%edx
  402cf3:	0f b6 08             	movzbl (%rax),%ecx
  402cf6:	83 ea 30             	sub    $0x30,%edx
  402cf9:	48 63 d2             	movslq %edx,%rdx
  402cfc:	48 8d 14 72          	lea    (%rdx,%rsi,2),%rdx
  402d00:	48 0f be f1          	movsbq %cl,%rsi
  402d04:	f6 44 77 01 08       	testb  $0x8,0x1(%rdi,%rsi,2)
  402d09:	74 05                	je     402d10 <th_main+0x640>
  402d0b:	4c 39 c0             	cmp    %r8,%rax
  402d0e:	75 d8                	jne    402ce8 <th_main+0x618>
  402d10:	48 85 d2             	test   %rdx,%rdx
  402d13:	0f 84 ab 00 00 00    	je     402dc4 <th_main+0x6f4>
  402d19:	48 89 15 00 88 20 00 	mov    %rdx,0x208800(%rip)        # 60b520 <iterations>
  402d20:	48 89 d6             	mov    %rdx,%rsi
  402d23:	bf f0 91 40 00       	mov    $0x4091f0,%edi
  402d28:	31 c0                	xor    %eax,%eax
  402d2a:	e8 31 f4 ff ff       	callq  402160 <t_printf>
  402d2f:	e9 7c fe ff ff       	jmpq   402bb0 <th_main+0x4e0>
  402d34:	be 07 92 40 00       	mov    $0x409207,%esi
  402d39:	48 89 ef             	mov    %rbp,%rdi
  402d3c:	e8 cf 14 00 00       	callq  404210 <str_icmp>
  402d41:	85 c0                	test   %eax,%eax
  402d43:	0f 84 93 01 00 00    	je     402edc <th_main+0x80c>
  402d49:	be 09 92 40 00       	mov    $0x409209,%esi
  402d4e:	48 89 ef             	mov    %rbp,%rdi
  402d51:	e8 ba 14 00 00       	callq  404210 <str_icmp>
  402d56:	85 c0                	test   %eax,%eax
  402d58:	0f 84 74 01 00 00    	je     402ed2 <th_main+0x802>
  402d5e:	be 0d 92 40 00       	mov    $0x40920d,%esi
  402d63:	48 89 ef             	mov    %rbp,%rdi
  402d66:	e8 a5 14 00 00       	callq  404210 <str_icmp>
  402d6b:	85 c0                	test   %eax,%eax
  402d6d:	0f 84 49 01 00 00    	je     402ebc <th_main+0x7ec>
  402d73:	be 27 92 40 00       	mov    $0x409227,%esi
  402d78:	48 89 ef             	mov    %rbp,%rdi
  402d7b:	e8 90 14 00 00       	callq  404210 <str_icmp>
  402d80:	85 c0                	test   %eax,%eax
  402d82:	0f 84 0d 01 00 00    	je     402e95 <th_main+0x7c5>
  402d88:	be 56 92 40 00       	mov    $0x409256,%esi
  402d8d:	48 89 ef             	mov    %rbp,%rdi
  402d90:	e8 7b 14 00 00       	callq  404210 <str_icmp>
  402d95:	85 c0                	test   %eax,%eax
  402d97:	0f 84 ea 00 00 00    	je     402e87 <th_main+0x7b7>
  402d9d:	be 5a 92 40 00       	mov    $0x40925a,%esi
  402da2:	48 89 ef             	mov    %rbp,%rdi
  402da5:	e8 66 14 00 00       	callq  404210 <str_icmp>
  402daa:	85 c0                	test   %eax,%eax
  402dac:	75 68                	jne    402e16 <th_main+0x746>
  402dae:	e8 8d 0d 00 00       	callq  403b40 <mem_delete_all_files>
  402db3:	bf ae 91 40 00       	mov    $0x4091ae,%edi
  402db8:	31 c0                	xor    %eax,%eax
  402dba:	e8 a1 f3 ff ff       	callq  402160 <t_printf>
  402dbf:	e9 25 fc ff ff       	jmpq   4029e9 <th_main+0x319>
  402dc4:	bf 20 96 40 00       	mov    $0x409620,%edi
  402dc9:	31 c0                	xor    %eax,%eax
  402dcb:	e8 90 f3 ff ff       	callq  402160 <t_printf>
  402dd0:	48 8b 05 59 87 20 00 	mov    0x208759(%rip),%rax        # 60b530 <the_tcdef_ptr>
  402dd7:	48 8b b0 a0 00 00 00 	mov    0xa0(%rax),%rsi
  402dde:	48 89 35 3b 87 20 00 	mov    %rsi,0x20873b(%rip)        # 60b520 <iterations>
  402de5:	e9 39 ff ff ff       	jmpq   402d23 <th_main+0x653>
  402dea:	c6 44 24 20 00       	movb   $0x0,0x20(%rsp)
  402def:	31 db                	xor    %ebx,%ebx
  402df1:	48 8d 6c 24 20       	lea    0x20(%rsp),%rbp
  402df6:	e9 74 fd ff ff       	jmpq   402b6f <th_main+0x49f>
  402dfb:	ba 0a 00 00 00       	mov    $0xa,%edx
  402e00:	31 f6                	xor    %esi,%esi
  402e02:	4c 89 d7             	mov    %r10,%rdi
  402e05:	e8 f6 db ff ff       	callq  400a00 <strtol@plt>
  402e0a:	48 89 05 0f 87 20 00 	mov    %rax,0x20870f(%rip)        # 60b520 <iterations>
  402e11:	e9 ea f9 ff ff       	jmpq   402800 <th_main+0x130>
  402e16:	be 86 92 40 00       	mov    $0x409286,%esi
  402e1b:	48 89 ef             	mov    %rbp,%rdi
  402e1e:	e8 ed 13 00 00       	callq  404210 <str_icmp>
  402e23:	85 c0                	test   %eax,%eax
  402e25:	0f 85 d1 fb ff ff    	jne    4029fc <th_main+0x32c>
  402e2b:	48 89 df             	mov    %rbx,%rdi
  402e2e:	e8 ad 11 00 00       	callq  403fe0 <is_all_white_space>
  402e33:	85 c0                	test   %eax,%eax
  402e35:	0f 84 ba 00 00 00    	je     402ef5 <th_main+0x825>
  402e3b:	8b 35 ff 86 20 00    	mov    0x2086ff(%rip),%esi        # 60b540 <argca>
  402e41:	31 c0                	xor    %eax,%eax
  402e43:	bf 50 96 40 00       	mov    $0x409650,%edi
  402e48:	e8 13 f3 ff ff       	callq  402160 <t_printf>
  402e4d:	8b 05 ed 86 20 00    	mov    0x2086ed(%rip),%eax        # 60b540 <argca>
  402e53:	85 c0                	test   %eax,%eax
  402e55:	0f 8e 10 fc ff ff    	jle    402a6b <th_main+0x39b>
  402e5b:	31 db                	xor    %ebx,%ebx
  402e5d:	48 8b 14 dd 60 b5 60 	mov    0x60b560(,%rbx,8),%rdx
  402e64:	00 
  402e65:	89 de                	mov    %ebx,%esi
  402e67:	31 c0                	xor    %eax,%eax
  402e69:	bf 5f 92 40 00       	mov    $0x40925f,%edi
  402e6e:	e8 ed f2 ff ff       	callq  402160 <t_printf>
  402e73:	8d 43 01             	lea    0x1(%rbx),%eax
  402e76:	48 83 c3 01          	add    $0x1,%rbx
  402e7a:	3b 05 c0 86 20 00    	cmp    0x2086c0(%rip),%eax        # 60b540 <argca>
  402e80:	7c db                	jl     402e5d <th_main+0x78d>
  402e82:	e9 e4 fb ff ff       	jmpq   402a6b <th_main+0x39b>
  402e87:	e8 54 0b 00 00       	callq  4039e0 <mem_report_info>
  402e8c:	0f 1f 40 00          	nopl   0x0(%rax)
  402e90:	e9 08 ff ff ff       	jmpq   402d9d <th_main+0x6cd>
  402e95:	31 ff                	xor    %edi,%edi
  402e97:	e8 24 0d 00 00       	callq  403bc0 <mem_get_file_num>
  402e9c:	48 85 c0             	test   %rax,%rax
  402e9f:	90                   	nop
  402ea0:	0f 84 83 00 00 00    	je     402f29 <th_main+0x859>
  402ea6:	e8 95 0c 00 00       	callq  403b40 <mem_delete_all_files>
  402eab:	bf 41 92 40 00       	mov    $0x409241,%edi
  402eb0:	31 c0                	xor    %eax,%eax
  402eb2:	e8 a9 f2 ff ff       	callq  402160 <t_printf>
  402eb7:	e9 cc fe ff ff       	jmpq   402d88 <th_main+0x6b8>
  402ebc:	e8 1f 0c 00 00       	callq  403ae0 <mem_delete_newest_file>
  402ec1:	bf 11 92 40 00       	mov    $0x409211,%edi
  402ec6:	31 c0                	xor    %eax,%eax
  402ec8:	e8 93 f2 ff ff       	callq  402160 <t_printf>
  402ecd:	e9 a1 fe ff ff       	jmpq   402d73 <th_main+0x6a3>
  402ed2:	e8 59 0a 00 00       	callq  403930 <mem_report_files>
  402ed7:	e9 82 fe ff ff       	jmpq   402d5e <th_main+0x68e>
  402edc:	0f 1f 40 00          	nopl   0x0(%rax)
  402ee0:	e8 5b f5 ff ff       	callq  402440 <report_info>
  402ee5:	e9 5f fe ff ff       	jmpq   402d49 <th_main+0x679>
  402eea:	66 0f 1f 44 00 00    	nopw   0x0(%rax,%rax,1)
  402ef0:	e8 ab da ff ff       	callq  4009a0 <__stack_chk_fail@plt>
  402ef5:	48 89 df             	mov    %rbx,%rdi
  402ef8:	e8 a3 ef ff ff       	callq  401ea0 <set_cmd_line>
  402efd:	bf 6f 92 40 00       	mov    $0x40926f,%edi
  402f02:	31 c0                	xor    %eax,%eax
  402f04:	e8 57 f2 ff ff       	callq  402160 <t_printf>
  402f09:	e9 5d fb ff ff       	jmpq   402a6b <th_main+0x39b>
  402f0e:	83 fd 01             	cmp    $0x1,%ebp
  402f11:	c6 05 68 8e 20 00 00 	movb   $0x0,0x208e68(%rip)        # 60bd80 <inbuf>
  402f18:	0f 8e 7c fa ff ff    	jle    40299a <th_main+0x2ca>
  402f1e:	41 bc b8 91 40 00    	mov    $0x4091b8,%r12d
  402f24:	e9 e9 f9 ff ff       	jmpq   402912 <th_main+0x242>
  402f29:	bf 2b 92 40 00       	mov    $0x40922b,%edi
  402f2e:	e8 2d f2 ff ff       	callq  402160 <t_printf>
  402f33:	e9 50 fe ff ff       	jmpq   402d88 <th_main+0x6b8>
  402f38:	bf ad 92 40 00       	mov    $0x4092ad,%edi
  402f3d:	e8 1e f2 ff ff       	callq  402160 <t_printf>
  402f42:	e9 24 fb ff ff       	jmpq   402a6b <th_main+0x39b>
  402f47:	be c1 92 40 00       	mov    $0x4092c1,%esi
  402f4c:	48 89 ef             	mov    %rbp,%rdi
  402f4f:	e8 bc 12 00 00       	callq  404210 <str_icmp>
  402f54:	85 c0                	test   %eax,%eax
  402f56:	0f 85 fe 00 00 00    	jne    40305a <th_main+0x98a>
  402f5c:	bf c3 92 40 00       	mov    $0x4092c3,%edi
  402f61:	31 c0                	xor    %eax,%eax
  402f63:	e8 f8 f1 ff ff       	callq  402160 <t_printf>
  402f68:	bf 98 96 40 00       	mov    $0x409698,%edi
  402f6d:	31 c0                	xor    %eax,%eax
  402f6f:	e8 ec f1 ff ff       	callq  402160 <t_printf>
  402f74:	bf e8 96 40 00       	mov    $0x4096e8,%edi
  402f79:	31 c0                	xor    %eax,%eax
  402f7b:	e8 e0 f1 ff ff       	callq  402160 <t_printf>
  402f80:	bf 18 97 40 00       	mov    $0x409718,%edi
  402f85:	31 c0                	xor    %eax,%eax
  402f87:	e8 d4 f1 ff ff       	callq  402160 <t_printf>
  402f8c:	bf 48 97 40 00       	mov    $0x409748,%edi
  402f91:	31 c0                	xor    %eax,%eax
  402f93:	e8 c8 f1 ff ff       	callq  402160 <t_printf>
  402f98:	bf 78 97 40 00       	mov    $0x409778,%edi
  402f9d:	31 c0                	xor    %eax,%eax
  402f9f:	e8 bc f1 ff ff       	callq  402160 <t_printf>
  402fa4:	bf a0 97 40 00       	mov    $0x4097a0,%edi
  402fa9:	31 c0                	xor    %eax,%eax
  402fab:	e8 b0 f1 ff ff       	callq  402160 <t_printf>
  402fb0:	bf d0 97 40 00       	mov    $0x4097d0,%edi
  402fb5:	31 c0                	xor    %eax,%eax
  402fb7:	e8 a4 f1 ff ff       	callq  402160 <t_printf>
  402fbc:	bf f8 97 40 00       	mov    $0x4097f8,%edi
  402fc1:	31 c0                	xor    %eax,%eax
  402fc3:	e8 98 f1 ff ff       	callq  402160 <t_printf>
  402fc8:	bf 28 98 40 00       	mov    $0x409828,%edi
  402fcd:	31 c0                	xor    %eax,%eax
  402fcf:	e8 8c f1 ff ff       	callq  402160 <t_printf>
  402fd4:	bf 50 98 40 00       	mov    $0x409850,%edi
  402fd9:	31 c0                	xor    %eax,%eax
  402fdb:	e8 80 f1 ff ff       	callq  402160 <t_printf>
  402fe0:	bf 78 98 40 00       	mov    $0x409878,%edi
  402fe5:	31 c0                	xor    %eax,%eax
  402fe7:	e8 74 f1 ff ff       	callq  402160 <t_printf>
  402fec:	bf ae 91 40 00       	mov    $0x4091ae,%edi
  402ff1:	31 c0                	xor    %eax,%eax
  402ff3:	e8 68 f1 ff ff       	callq  402160 <t_printf>
  402ff8:	e9 6e fa ff ff       	jmpq   402a6b <th_main+0x39b>
  402ffd:	be d0 b1 60 00       	mov    $0x60b1d0,%esi
  403002:	bf 73 91 40 00       	mov    $0x409173,%edi
  403007:	e8 54 f1 ff ff       	callq  402160 <t_printf>
  40300c:	48 8b 05 1d 85 20 00 	mov    0x20851d(%rip),%rax        # 60b530 <the_tcdef_ptr>
  403013:	bf d0 91 40 00       	mov    $0x4091d0,%edi
  403018:	48 8d 70 40          	lea    0x40(%rax),%rsi
  40301c:	31 c0                	xor    %eax,%eax
  40301e:	e8 3d f1 ff ff       	callq  402160 <t_printf>
  403023:	48 8b 35 06 85 20 00 	mov    0x208506(%rip),%rsi        # 60b530 <the_tcdef_ptr>
  40302a:	bf 8d 92 40 00       	mov    $0x40928d,%edi
  40302f:	31 c0                	xor    %eax,%eax
  403031:	e8 2a f1 ff ff       	callq  402160 <t_printf>
  403036:	e9 30 fa ff ff       	jmpq   402a6b <th_main+0x39b>
  40303b:	8b 35 ff 84 20 00    	mov    0x2084ff(%rip),%esi        # 60b540 <argca>
  403041:	bf 78 96 40 00       	mov    $0x409678,%edi
  403046:	e8 15 f1 ff ff       	callq  402160 <t_printf>
  40304b:	bf af 91 40 00       	mov    $0x4091af,%edi
  403050:	e8 4b ee ff ff       	callq  401ea0 <set_cmd_line>
  403055:	e9 11 fa ff ff       	jmpq   402a6b <th_main+0x39b>
  40305a:	be d5 92 40 00       	mov    $0x4092d5,%esi
  40305f:	48 89 ef             	mov    %rbp,%rdi
  403062:	e8 a9 11 00 00       	callq  404210 <str_icmp>
  403067:	85 c0                	test   %eax,%eax
  403069:	0f 84 ed fe ff ff    	je     402f5c <th_main+0x88c>
  40306f:	be da 92 40 00       	mov    $0x4092da,%esi
  403074:	48 89 ef             	mov    %rbp,%rdi
  403077:	e8 94 11 00 00       	callq  404210 <str_icmp>
  40307c:	85 c0                	test   %eax,%eax
  40307e:	0f 84 d8 fe ff ff    	je     402f5c <th_main+0x88c>
  403084:	e9 e2 f9 ff ff       	jmpq   402a6b <th_main+0x39b>
  403089:	0f 1f 80 00 00 00 00 	nopl   0x0(%rax)

0000000000403090 <thlib_main>:
  403090:	48 85 ff             	test   %rdi,%rdi
  403093:	75 0b                	jne    4030a0 <thlib_main+0x10>
  403095:	b8 02 00 00 00       	mov    $0x2,%eax
  40309a:	c3                   	retq   
  40309b:	0f 1f 44 00 00       	nopl   0x0(%rax,%rax,1)
  4030a0:	53                   	push   %rbx
  4030a1:	b8 02 00 00 00       	mov    $0x2,%eax
  4030a6:	48 89 f3             	mov    %rsi,%rbx
  4030a9:	48 83 ec 10          	sub    $0x10,%rsp
  4030ad:	48 85 f6             	test   %rsi,%rsi
  4030b0:	75 0e                	jne    4030c0 <thlib_main+0x30>
  4030b2:	48 83 c4 10          	add    $0x10,%rsp
  4030b6:	5b                   	pop    %rbx
  4030b7:	c3                   	retq   
  4030b8:	0f 1f 84 00 00 00 00 	nopl   0x0(%rax,%rax,1)
  4030bf:	00 
  4030c0:	66 83 bf 80 00 00 00 	cmpw   $0x4,0x80(%rdi)
  4030c7:	04 
  4030c8:	b8 03 00 00 00       	mov    $0x3,%eax
  4030cd:	77 e3                	ja     4030b2 <thlib_main+0x22>
  4030cf:	48 89 3d c2 90 20 00 	mov    %rdi,0x2090c2(%rip)        # 60c198 <thdef>
  4030d6:	48 8d 7c 24 08       	lea    0x8(%rsp),%rdi
  4030db:	89 d6                	mov    %edx,%esi
  4030dd:	48 89 ca             	mov    %rcx,%rdx
  4030e0:	e8 bb db ff ff       	callq  400ca0 <test_main>
  4030e5:	48 8b 54 24 08       	mov    0x8(%rsp),%rdx
  4030ea:	89 c1                	mov    %eax,%ecx
  4030ec:	b8 04 00 00 00       	mov    $0x4,%eax
  4030f1:	66 83 ba 80 00 00 00 	cmpw   $0x2,0x80(%rdx)
  4030f8:	02 
  4030f9:	77 b7                	ja     4030b2 <thlib_main+0x22>
  4030fb:	85 c9                	test   %ecx,%ecx
  4030fd:	89 c8                	mov    %ecx,%eax
  4030ff:	75 b1                	jne    4030b2 <thlib_main+0x22>
  403101:	48 89 13             	mov    %rdx,(%rbx)
  403104:	eb ac                	jmp    4030b2 <thlib_main+0x22>
  403106:	66 2e 0f 1f 84 00 00 	nopw   %cs:0x0(%rax,%rax,1)
  40310d:	00 00 00 

0000000000403110 <th_printf>:
  403110:	48 81 ec d8 00 00 00 	sub    $0xd8,%rsp
  403117:	84 c0                	test   %al,%al
  403119:	48 89 74 24 28       	mov    %rsi,0x28(%rsp)
  40311e:	48 89 54 24 30       	mov    %rdx,0x30(%rsp)
  403123:	48 89 4c 24 38       	mov    %rcx,0x38(%rsp)
  403128:	4c 89 44 24 40       	mov    %r8,0x40(%rsp)
  40312d:	4c 89 4c 24 48       	mov    %r9,0x48(%rsp)
  403132:	74 37                	je     40316b <th_printf+0x5b>
  403134:	0f 29 44 24 50       	movaps %xmm0,0x50(%rsp)
  403139:	0f 29 4c 24 60       	movaps %xmm1,0x60(%rsp)
  40313e:	0f 29 54 24 70       	movaps %xmm2,0x70(%rsp)
  403143:	0f 29 9c 24 80 00 00 	movaps %xmm3,0x80(%rsp)
  40314a:	00 
  40314b:	0f 29 a4 24 90 00 00 	movaps %xmm4,0x90(%rsp)
  403152:	00 
  403153:	0f 29 ac 24 a0 00 00 	movaps %xmm5,0xa0(%rsp)
  40315a:	00 
  40315b:	0f 29 b4 24 b0 00 00 	movaps %xmm6,0xb0(%rsp)
  403162:	00 
  403163:	0f 29 bc 24 c0 00 00 	movaps %xmm7,0xc0(%rsp)
  40316a:	00 
  40316b:	48 8d 84 24 e0 00 00 	lea    0xe0(%rsp),%rax
  403172:	00 
  403173:	48 8d 74 24 08       	lea    0x8(%rsp),%rsi
  403178:	48 89 44 24 10       	mov    %rax,0x10(%rsp)
  40317d:	48 8d 44 24 20       	lea    0x20(%rsp),%rax
  403182:	c7 44 24 08 08 00 00 	movl   $0x8,0x8(%rsp)
  403189:	00 
  40318a:	c7 44 24 0c 30 00 00 	movl   $0x30,0xc(%rsp)
  403191:	00 
  403192:	48 89 44 24 18       	mov    %rax,0x18(%rsp)
  403197:	48 8b 05 fa 8f 20 00 	mov    0x208ffa(%rip),%rax        # 60c198 <thdef>
  40319e:	ff 90 a0 00 00 00    	callq  *0xa0(%rax)
  4031a4:	48 81 c4 d8 00 00 00 	add    $0xd8,%rsp
  4031ab:	c3                   	retq   
  4031ac:	0f 1f 40 00          	nopl   0x0(%rax)

00000000004031b0 <th_sprintf>:
  4031b0:	48 81 ec d8 00 00 00 	sub    $0xd8,%rsp
  4031b7:	84 c0                	test   %al,%al
  4031b9:	48 89 54 24 30       	mov    %rdx,0x30(%rsp)
  4031be:	48 89 4c 24 38       	mov    %rcx,0x38(%rsp)
  4031c3:	4c 89 44 24 40       	mov    %r8,0x40(%rsp)
  4031c8:	4c 89 4c 24 48       	mov    %r9,0x48(%rsp)
  4031cd:	74 37                	je     403206 <th_sprintf+0x56>
  4031cf:	0f 29 44 24 50       	movaps %xmm0,0x50(%rsp)
  4031d4:	0f 29 4c 24 60       	movaps %xmm1,0x60(%rsp)
  4031d9:	0f 29 54 24 70       	movaps %xmm2,0x70(%rsp)
  4031de:	0f 29 9c 24 80 00 00 	movaps %xmm3,0x80(%rsp)
  4031e5:	00 
  4031e6:	0f 29 a4 24 90 00 00 	movaps %xmm4,0x90(%rsp)
  4031ed:	00 
  4031ee:	0f 29 ac 24 a0 00 00 	movaps %xmm5,0xa0(%rsp)
  4031f5:	00 
  4031f6:	0f 29 b4 24 b0 00 00 	movaps %xmm6,0xb0(%rsp)
  4031fd:	00 
  4031fe:	0f 29 bc 24 c0 00 00 	movaps %xmm7,0xc0(%rsp)
  403205:	00 
  403206:	48 8d 84 24 e0 00 00 	lea    0xe0(%rsp),%rax
  40320d:	00 
  40320e:	4c 8d 44 24 08       	lea    0x8(%rsp),%r8
  403213:	48 89 f1             	mov    %rsi,%rcx
  403216:	48 c7 c2 ff ff ff ff 	mov    $0xffffffffffffffff,%rdx
  40321d:	be 01 00 00 00       	mov    $0x1,%esi
  403222:	48 89 44 24 10       	mov    %rax,0x10(%rsp)
  403227:	48 8d 44 24 20       	lea    0x20(%rsp),%rax
  40322c:	c7 44 24 08 10 00 00 	movl   $0x10,0x8(%rsp)
  403233:	00 
  403234:	c7 44 24 0c 30 00 00 	movl   $0x30,0xc(%rsp)
  40323b:	00 
  40323c:	48 89 44 24 18       	mov    %rax,0x18(%rsp)
  403241:	e8 1a d8 ff ff       	callq  400a60 <__vsprintf_chk@plt>
  403246:	48 81 c4 d8 00 00 00 	add    $0xd8,%rsp
  40324d:	c3                   	retq   
  40324e:	66 90                	xchg   %ax,%ax

0000000000403250 <th_putchar>:
  403250:	48 8b 05 41 8f 20 00 	mov    0x208f41(%rip),%rax        # 60c198 <thdef>
  403257:	40 0f be ff          	movsbl %dil,%edi
  40325b:	48 8b 80 b8 00 00 00 	mov    0xb8(%rax),%rax
  403262:	ff e0                	jmpq   *%rax
  403264:	66 66 66 2e 0f 1f 84 	data32 data32 nopw %cs:0x0(%rax,%rax,1)
  40326b:	00 00 00 00 00 

0000000000403270 <th_puts>:
  403270:	48 83 ec 08          	sub    $0x8,%rsp
  403274:	48 8b 05 1d 8f 20 00 	mov    0x208f1d(%rip),%rax        # 60c198 <thdef>
  40327b:	ff 90 b0 00 00 00    	callq  *0xb0(%rax)
  403281:	83 f8 ff             	cmp    $0xffffffff,%eax
  403284:	74 2a                	je     4032b0 <th_puts+0x40>
  403286:	48 8b 05 0b 8f 20 00 	mov    0x208f0b(%rip),%rax        # 60c198 <thdef>
  40328d:	bf 0a 00 00 00       	mov    $0xa,%edi
  403292:	ff 90 b8 00 00 00    	callq  *0xb8(%rax)
  403298:	83 f8 ff             	cmp    $0xffffffff,%eax
  40329b:	74 13                	je     4032b0 <th_puts+0x40>
  40329d:	b8 01 00 00 00       	mov    $0x1,%eax
  4032a2:	48 83 c4 08          	add    $0x8,%rsp
  4032a6:	c3                   	retq   
  4032a7:	66 0f 1f 84 00 00 00 	nopw   0x0(%rax,%rax,1)
  4032ae:	00 00 
  4032b0:	b8 ff ff ff ff       	mov    $0xffffffff,%eax
  4032b5:	eb eb                	jmp    4032a2 <th_puts+0x32>
  4032b7:	66 0f 1f 84 00 00 00 	nopw   0x0(%rax,%rax,1)
  4032be:	00 00 

00000000004032c0 <th_putb>:
  4032c0:	48 83 ec 08          	sub    $0x8,%rsp
  4032c4:	48 8b 05 cd 8e 20 00 	mov    0x208ecd(%rip),%rax        # 60c198 <thdef>
  4032cb:	ff 90 c0 00 00 00    	callq  *0xc0(%rax)
  4032d1:	83 f8 01             	cmp    $0x1,%eax
  4032d4:	19 c0                	sbb    %eax,%eax
  4032d6:	48 83 c4 08          	add    $0x8,%rsp
  4032da:	83 e0 02             	and    $0x2,%eax
  4032dd:	83 e8 01             	sub    $0x1,%eax
  4032e0:	c3                   	retq   
  4032e1:	66 66 66 66 66 66 2e 	data32 data32 data32 data32 data32 nopw %cs:0x0(%rax,%rax,1)
  4032e8:	0f 1f 84 00 00 00 00 
  4032ef:	00 

00000000004032f0 <th_sends>:
  4032f0:	48 8b 05 a1 8e 20 00 	mov    0x208ea1(%rip),%rax        # 60c198 <thdef>
  4032f7:	48 8b 80 b0 00 00 00 	mov    0xb0(%rax),%rax
  4032fe:	ff e0                	jmpq   *%rax

0000000000403300 <th_con_chars_avail>:
  403300:	48 8b 05 91 8e 20 00 	mov    0x208e91(%rip),%rax        # 60c198 <thdef>
  403307:	48 8b 80 d0 00 00 00 	mov    0xd0(%rax),%rax
  40330e:	ff e0                	jmpq   *%rax

0000000000403310 <th_read_con>:
  403310:	48 8b 05 81 8e 20 00 	mov    0x208e81(%rip),%rax        # 60c198 <thdef>
  403317:	48 8b 80 c8 00 00 00 	mov    0xc8(%rax),%rax
  40331e:	ff e0                	jmpq   *%rax

0000000000403320 <th_timer_available>:
  403320:	48 8b 05 71 8e 20 00 	mov    0x208e71(%rip),%rax        # 60c198 <thdef>
  403327:	8b 80 98 00 00 00    	mov    0x98(%rax),%eax
  40332d:	c3                   	retq   
  40332e:	66 90                	xchg   %ax,%ax

0000000000403330 <th_timer_is_intrusive>:
  403330:	48 8b 05 61 8e 20 00 	mov    0x208e61(%rip),%rax        # 60c198 <thdef>
  403337:	8b 80 9c 00 00 00    	mov    0x9c(%rax),%eax
  40333d:	c3                   	retq   
  40333e:	66 90                	xchg   %ax,%ax

0000000000403340 <th_ticks_per_sec>:
  403340:	48 8b 05 51 8e 20 00 	mov    0x208e51(%rip),%rax        # 60c198 <thdef>
  403347:	48 8b 80 d8 00 00 00 	mov    0xd8(%rax),%rax
  40334e:	ff e0                	jmpq   *%rax

0000000000403350 <th_tick_granularity>:
  403350:	48 8b 05 41 8e 20 00 	mov    0x208e41(%rip),%rax        # 60c198 <thdef>
  403357:	48 8b 80 e0 00 00 00 	mov    0xe0(%rax),%rax
  40335e:	ff e0                	jmpq   *%rax

0000000000403360 <th_malloc_x>:
  403360:	48 8b 05 31 8e 20 00 	mov    0x208e31(%rip),%rax        # 60c198 <thdef>
  403367:	48 8b 80 e8 00 00 00 	mov    0xe8(%rax),%rax
  40336e:	ff e0                	jmpq   *%rax

0000000000403370 <th_free_x>:
  403370:	48 8b 05 21 8e 20 00 	mov    0x208e21(%rip),%rax        # 60c198 <thdef>
  403377:	48 8b 80 f0 00 00 00 	mov    0xf0(%rax),%rax
  40337e:	ff e0                	jmpq   *%rax

0000000000403380 <th_heap_reset>:
  403380:	48 8b 05 11 8e 20 00 	mov    0x208e11(%rip),%rax        # 60c198 <thdef>
  403387:	48 8b 80 f8 00 00 00 	mov    0xf8(%rax),%rax
  40338e:	ff e0                	jmpq   *%rax

0000000000403390 <th_signal_start>:
  403390:	48 8b 05 01 8e 20 00 	mov    0x208e01(%rip),%rax        # 60c198 <thdef>
  403397:	48 8b 80 00 01 00 00 	mov    0x100(%rax),%rax
  40339e:	ff e0                	jmpq   *%rax

00000000004033a0 <th_signal_finished>:
  4033a0:	48 8b 05 f1 8d 20 00 	mov    0x208df1(%rip),%rax        # 60c198 <thdef>
  4033a7:	48 8b 80 08 01 00 00 	mov    0x108(%rax),%rax
  4033ae:	ff e0                	jmpq   *%rax

00000000004033b0 <th_exit>:
  4033b0:	48 81 ec d8 00 00 00 	sub    $0xd8,%rsp
  4033b7:	84 c0                	test   %al,%al
  4033b9:	48 89 54 24 30       	mov    %rdx,0x30(%rsp)
  4033be:	48 89 4c 24 38       	mov    %rcx,0x38(%rsp)
  4033c3:	4c 89 44 24 40       	mov    %r8,0x40(%rsp)
  4033c8:	4c 89 4c 24 48       	mov    %r9,0x48(%rsp)
  4033cd:	74 37                	je     403406 <th_exit+0x56>
  4033cf:	0f 29 44 24 50       	movaps %xmm0,0x50(%rsp)
  4033d4:	0f 29 4c 24 60       	movaps %xmm1,0x60(%rsp)
  4033d9:	0f 29 54 24 70       	movaps %xmm2,0x70(%rsp)
  4033de:	0f 29 9c 24 80 00 00 	movaps %xmm3,0x80(%rsp)
  4033e5:	00 
  4033e6:	0f 29 a4 24 90 00 00 	movaps %xmm4,0x90(%rsp)
  4033ed:	00 
  4033ee:	0f 29 ac 24 a0 00 00 	movaps %xmm5,0xa0(%rsp)
  4033f5:	00 
  4033f6:	0f 29 b4 24 b0 00 00 	movaps %xmm6,0xb0(%rsp)
  4033fd:	00 
  4033fe:	0f 29 bc 24 c0 00 00 	movaps %xmm7,0xc0(%rsp)
  403405:	00 
  403406:	48 8d 84 24 e0 00 00 	lea    0xe0(%rsp),%rax
  40340d:	00 
  40340e:	48 8d 54 24 08       	lea    0x8(%rsp),%rdx
  403413:	48 89 44 24 10       	mov    %rax,0x10(%rsp)
  403418:	48 8d 44 24 20       	lea    0x20(%rsp),%rax
  40341d:	c7 44 24 08 10 00 00 	movl   $0x10,0x8(%rsp)
  403424:	00 
  403425:	c7 44 24 0c 30 00 00 	movl   $0x30,0xc(%rsp)
  40342c:	00 
  40342d:	48 89 44 24 18       	mov    %rax,0x18(%rsp)
  403432:	48 8b 05 5f 8d 20 00 	mov    0x208d5f(%rip),%rax        # 60c198 <thdef>
  403439:	ff 90 10 01 00 00    	callq  *0x110(%rax)
  40343f:	48 81 c4 d8 00 00 00 	add    $0xd8,%rsp
  403446:	c3                   	retq   
  403447:	66 0f 1f 84 00 00 00 	nopw   0x0(%rax,%rax,1)
  40344e:	00 00 

0000000000403450 <th_report_results>:
  403450:	48 8b 05 41 8d 20 00 	mov    0x208d41(%rip),%rax        # 60c198 <thdef>
  403457:	0f b7 f6             	movzwl %si,%esi
  40345a:	48 8b 80 18 01 00 00 	mov    0x118(%rax),%rax
  403461:	ff e0                	jmpq   *%rax
  403463:	66 66 66 66 2e 0f 1f 	data32 data32 data32 nopw %cs:0x0(%rax,%rax,1)
  40346a:	84 00 00 00 00 00 

0000000000403470 <th_harness_poll>:
  403470:	48 8b 05 21 8d 20 00 	mov    0x208d21(%rip),%rax        # 60c198 <thdef>
  403477:	48 8b 80 20 01 00 00 	mov    0x120(%rax),%rax
  40347e:	ff e0                	jmpq   *%rax

0000000000403480 <th_get_file_def>:
  403480:	48 8b 05 11 8d 20 00 	mov    0x208d11(%rip),%rax        # 60c198 <thdef>
  403487:	48 8b 80 28 01 00 00 	mov    0x128(%rax),%rax
  40348e:	ff e0                	jmpq   *%rax

0000000000403490 <th_get_file_num>:
  403490:	48 8b 05 01 8d 20 00 	mov    0x208d01(%rip),%rax        # 60c198 <thdef>
  403497:	48 8b 80 30 01 00 00 	mov    0x130(%rax),%rax
  40349e:	ff e0                	jmpq   *%rax

00000000004034a0 <th_send_buf_as_file>:
  4034a0:	48 8b 05 f1 8c 20 00 	mov    0x208cf1(%rip),%rax        # 60c198 <thdef>
  4034a7:	48 8b 80 38 01 00 00 	mov    0x138(%rax),%rax
  4034ae:	ff e0                	jmpq   *%rax

00000000004034b0 <encode>:
  4034b0:	41 57                	push   %r15
  4034b2:	41 56                	push   %r14
  4034b4:	41 55                	push   %r13
  4034b6:	41 54                	push   %r12
  4034b8:	55                   	push   %rbp
  4034b9:	53                   	push   %rbx
  4034ba:	48 81 ec 88 00 00 00 	sub    $0x88,%rsp
  4034c1:	64 48 8b 04 25 28 00 	mov    %fs:0x28,%rax
  4034c8:	00 00 
  4034ca:	48 89 44 24 78       	mov    %rax,0x78(%rsp)
  4034cf:	31 c0                	xor    %eax,%eax
  4034d1:	85 f6                	test   %esi,%esi
  4034d3:	48 89 7c 24 18       	mov    %rdi,0x18(%rsp)
  4034d8:	89 74 24 14          	mov    %esi,0x14(%rsp)
  4034dc:	7f 31                	jg     40350f <encode+0x5f>
  4034de:	48 8b 44 24 78       	mov    0x78(%rsp),%rax
  4034e3:	64 48 33 04 25 28 00 	xor    %fs:0x28,%rax
  4034ea:	00 00 
  4034ec:	0f 85 bc 02 00 00    	jne    4037ae <encode+0x2fe>
  4034f2:	48 81 c4 88 00 00 00 	add    $0x88,%rsp
  4034f9:	bf b0 98 40 00       	mov    $0x4098b0,%edi
  4034fe:	31 c0                	xor    %eax,%eax
  403500:	5b                   	pop    %rbx
  403501:	5d                   	pop    %rbp
  403502:	41 5c                	pop    %r12
  403504:	41 5d                	pop    %r13
  403506:	41 5e                	pop    %r14
  403508:	41 5f                	pop    %r15
  40350a:	e9 51 ec ff ff       	jmpq   402160 <t_printf>
  40350f:	48 85 ff             	test   %rdi,%rdi
  403512:	74 ca                	je     4034de <encode+0x2e>
  403514:	48 8d 5c 24 20       	lea    0x20(%rsp),%rbx
  403519:	48 c7 05 e4 7d 20 00 	movq   $0x409900,0x207de4(%rip)        # 60b308 <trans_ptr>
  403520:	00 99 40 00 
  403524:	48 c7 44 24 08 00 00 	movq   $0x0,0x8(%rsp)
  40352b:	00 00 
  40352d:	be 00 99 40 00       	mov    $0x409900,%esi
  403532:	66 0f 1f 44 00 00    	nopw   0x0(%rax,%rax,1)
  403538:	48 8b 4c 24 18       	mov    0x18(%rsp),%rcx
  40353d:	31 c0                	xor    %eax,%eax
  40353f:	48 03 4c 24 08       	add    0x8(%rsp),%rcx
  403544:	eb 20                	jmp    403566 <encode+0xb6>
  403546:	66 2e 0f 1f 84 00 00 	nopw   %cs:0x0(%rax,%rax,1)
  40354d:	00 00 00 
  403550:	0f b6 14 01          	movzbl (%rcx,%rax,1),%edx
  403554:	88 54 04 20          	mov    %dl,0x20(%rsp,%rax,1)
  403558:	48 83 c0 01          	add    $0x1,%rax
  40355c:	48 83 f8 2d          	cmp    $0x2d,%rax
  403560:	0f 84 d2 01 00 00    	je     403738 <encode+0x288>
  403566:	8b 7c 24 08          	mov    0x8(%rsp),%edi
  40356a:	89 c5                	mov    %eax,%ebp
  40356c:	8d 14 38             	lea    (%rax,%rdi,1),%edx
  40356f:	39 54 24 14          	cmp    %edx,0x14(%rsp)
  403573:	7f db                	jg     403550 <encode+0xa0>
  403575:	85 c0                	test   %eax,%eax
  403577:	0f 84 7f 01 00 00    	je     4036fc <encode+0x24c>
  40357d:	48 98                	cltq   
  40357f:	0f be 3c 06          	movsbl (%rsi,%rax,1),%edi
  403583:	e8 c8 fc ff ff       	callq  403250 <th_putchar>
  403588:	83 f8 ff             	cmp    $0xffffffff,%eax
  40358b:	0f 84 be 01 00 00    	je     40374f <encode+0x29f>
  403591:	83 fd 02             	cmp    $0x2,%ebp
  403594:	0f 8e f7 01 00 00    	jle    403791 <encode+0x2e1>
  40359a:	48 8d 5c 24 20       	lea    0x20(%rsp),%rbx
  40359f:	e9 95 00 00 00       	jmpq   403639 <encode+0x189>
  4035a4:	0f 1f 40 00          	nopl   0x0(%rax)
  4035a8:	44 0f b6 7b 01       	movzbl 0x1(%rbx),%r15d
  4035ad:	44 89 e2             	mov    %r12d,%edx
  4035b0:	c1 e2 04             	shl    $0x4,%edx
  4035b3:	83 e2 30             	and    $0x30,%edx
  4035b6:	44 89 f8             	mov    %r15d,%eax
  4035b9:	c0 e8 04             	shr    $0x4,%al
  4035bc:	0f be c0             	movsbl %al,%eax
  4035bf:	09 d0                	or     %edx,%eax
  4035c1:	48 8b 15 40 7d 20 00 	mov    0x207d40(%rip),%rdx        # 60b308 <trans_ptr>
  4035c8:	48 98                	cltq   
  4035ca:	0f be 3c 02          	movsbl (%rdx,%rax,1),%edi
  4035ce:	e8 7d fc ff ff       	callq  403250 <th_putchar>
  4035d3:	83 f8 ff             	cmp    $0xffffffff,%eax
  4035d6:	0f 84 86 00 00 00    	je     403662 <encode+0x1b2>
  4035dc:	44 0f b6 73 02       	movzbl 0x2(%rbx),%r14d
  4035e1:	42 8d 14 bd 00 00 00 	lea    0x0(,%r15,4),%edx
  4035e8:	00 
  4035e9:	83 e2 3c             	and    $0x3c,%edx
  4035ec:	44 89 f0             	mov    %r14d,%eax
  4035ef:	c0 e8 06             	shr    $0x6,%al
  4035f2:	0f be c0             	movsbl %al,%eax
  4035f5:	09 d0                	or     %edx,%eax
  4035f7:	48 8b 15 0a 7d 20 00 	mov    0x207d0a(%rip),%rdx        # 60b308 <trans_ptr>
  4035fe:	48 98                	cltq   
  403600:	0f be 3c 02          	movsbl (%rdx,%rax,1),%edi
  403604:	e8 47 fc ff ff       	callq  403250 <th_putchar>
  403609:	83 f8 ff             	cmp    $0xffffffff,%eax
  40360c:	74 54                	je     403662 <encode+0x1b2>
  40360e:	48 8b 05 f3 7c 20 00 	mov    0x207cf3(%rip),%rax        # 60b308 <trans_ptr>
  403615:	4c 89 f6             	mov    %r14,%rsi
  403618:	83 e6 3f             	and    $0x3f,%esi
  40361b:	0f be 3c 30          	movsbl (%rax,%rsi,1),%edi
  40361f:	e8 2c fc ff ff       	callq  403250 <th_putchar>
  403624:	83 f8 ff             	cmp    $0xffffffff,%eax
  403627:	74 39                	je     403662 <encode+0x1b2>
  403629:	83 ed 03             	sub    $0x3,%ebp
  40362c:	48 83 c3 03          	add    $0x3,%rbx
  403630:	83 fd 02             	cmp    $0x2,%ebp
  403633:	0f 8e 2f 01 00 00    	jle    403768 <encode+0x2b8>
  403639:	44 0f b6 23          	movzbl (%rbx),%r12d
  40363d:	48 8b 05 c4 7c 20 00 	mov    0x207cc4(%rip),%rax        # 60b308 <trans_ptr>
  403644:	45 89 e5             	mov    %r12d,%r13d
  403647:	41 c0 ed 02          	shr    $0x2,%r13b
  40364b:	4d 0f be ed          	movsbq %r13b,%r13
  40364f:	42 0f be 3c 28       	movsbl (%rax,%r13,1),%edi
  403654:	e8 f7 fb ff ff       	callq  403250 <th_putchar>
  403659:	83 f8 ff             	cmp    $0xffffffff,%eax
  40365c:	0f 85 46 ff ff ff    	jne    4035a8 <encode+0xf8>
  403662:	83 fd 01             	cmp    $0x1,%ebp
  403665:	0f 84 2d 01 00 00    	je     403798 <encode+0x2e8>
  40366b:	0f b6 5b 01          	movzbl 0x1(%rbx),%ebx
  40366f:	48 8b 05 92 7c 20 00 	mov    0x207c92(%rip),%rax        # 60b308 <trans_ptr>
  403676:	42 0f be 3c 28       	movsbl (%rax,%r13,1),%edi
  40367b:	e8 d0 fb ff ff       	callq  403250 <th_putchar>
  403680:	83 f8 ff             	cmp    $0xffffffff,%eax
  403683:	74 70                	je     4036f5 <encode+0x245>
  403685:	89 d8                	mov    %ebx,%eax
  403687:	41 c1 e4 04          	shl    $0x4,%r12d
  40368b:	48 8b 15 76 7c 20 00 	mov    0x207c76(%rip),%rdx        # 60b308 <trans_ptr>
  403692:	c0 e8 04             	shr    $0x4,%al
  403695:	41 83 e4 30          	and    $0x30,%r12d
  403699:	0f be c0             	movsbl %al,%eax
  40369c:	44 09 e0             	or     %r12d,%eax
  40369f:	48 98                	cltq   
  4036a1:	0f be 3c 02          	movsbl (%rdx,%rax,1),%edi
  4036a5:	e8 a6 fb ff ff       	callq  403250 <th_putchar>
  4036aa:	83 f8 ff             	cmp    $0xffffffff,%eax
  4036ad:	74 46                	je     4036f5 <encode+0x245>
  4036af:	83 fd 01             	cmp    $0x1,%ebp
  4036b2:	0f 84 e7 00 00 00    	je     40379f <encode+0x2ef>
  4036b8:	8d 04 9d 00 00 00 00 	lea    0x0(,%rbx,4),%eax
  4036bf:	48 8b 15 42 7c 20 00 	mov    0x207c42(%rip),%rdx        # 60b308 <trans_ptr>
  4036c6:	83 e0 3c             	and    $0x3c,%eax
  4036c9:	0f be 3c 02          	movsbl (%rdx,%rax,1),%edi
  4036cd:	e8 7e fb ff ff       	callq  403250 <th_putchar>
  4036d2:	83 f8 ff             	cmp    $0xffffffff,%eax
  4036d5:	74 1e                	je     4036f5 <encode+0x245>
  4036d7:	48 8b 05 2a 7c 20 00 	mov    0x207c2a(%rip),%rax        # 60b308 <trans_ptr>
  4036de:	0f be 38             	movsbl (%rax),%edi
  4036e1:	e8 6a fb ff ff       	callq  403250 <th_putchar>
  4036e6:	83 f8 ff             	cmp    $0xffffffff,%eax
  4036e9:	74 0a                	je     4036f5 <encode+0x245>
  4036eb:	bf 0a 00 00 00       	mov    $0xa,%edi
  4036f0:	e8 5b fb ff ff       	callq  403250 <th_putchar>
  4036f5:	48 8b 35 0c 7c 20 00 	mov    0x207c0c(%rip),%rsi        # 60b308 <trans_ptr>
  4036fc:	0f be 3e             	movsbl (%rsi),%edi
  4036ff:	e8 4c fb ff ff       	callq  403250 <th_putchar>
  403704:	48 8b 44 24 78       	mov    0x78(%rsp),%rax
  403709:	64 48 33 04 25 28 00 	xor    %fs:0x28,%rax
  403710:	00 00 
  403712:	0f 85 96 00 00 00    	jne    4037ae <encode+0x2fe>
  403718:	48 81 c4 88 00 00 00 	add    $0x88,%rsp
  40371f:	bf 0a 00 00 00       	mov    $0xa,%edi
  403724:	5b                   	pop    %rbx
  403725:	5d                   	pop    %rbp
  403726:	41 5c                	pop    %r12
  403728:	41 5d                	pop    %r13
  40372a:	41 5e                	pop    %r14
  40372c:	41 5f                	pop    %r15
  40372e:	e9 1d fb ff ff       	jmpq   403250 <th_putchar>
  403733:	0f 1f 44 00 00       	nopl   0x0(%rax,%rax,1)
  403738:	0f be 7e 2d          	movsbl 0x2d(%rsi),%edi
  40373c:	bd 2d 00 00 00       	mov    $0x2d,%ebp
  403741:	e8 0a fb ff ff       	callq  403250 <th_putchar>
  403746:	83 f8 ff             	cmp    $0xffffffff,%eax
  403749:	0f 85 4b fe ff ff    	jne    40359a <encode+0xea>
  40374f:	44 0f b6 23          	movzbl (%rbx),%r12d
  403753:	45 89 e5             	mov    %r12d,%r13d
  403756:	41 c0 ed 02          	shr    $0x2,%r13b
  40375a:	4d 0f be ed          	movsbq %r13b,%r13
  40375e:	e9 ff fe ff ff       	jmpq   403662 <encode+0x1b2>
  403763:	0f 1f 44 00 00       	nopl   0x0(%rax,%rax,1)
  403768:	85 ed                	test   %ebp,%ebp
  40376a:	75 e3                	jne    40374f <encode+0x29f>
  40376c:	bf 0a 00 00 00       	mov    $0xa,%edi
  403771:	e8 da fa ff ff       	callq  403250 <th_putchar>
  403776:	48 83 44 24 08 2d    	addq   $0x2d,0x8(%rsp)
  40377c:	83 f8 ff             	cmp    $0xffffffff,%eax
  40377f:	48 8b 35 82 7b 20 00 	mov    0x207b82(%rip),%rsi        # 60b308 <trans_ptr>
  403786:	0f 85 ac fd ff ff    	jne    403538 <encode+0x88>
  40378c:	e9 6b ff ff ff       	jmpq   4036fc <encode+0x24c>
  403791:	48 8d 5c 24 20       	lea    0x20(%rsp),%rbx
  403796:	eb b7                	jmp    40374f <encode+0x29f>
  403798:	31 db                	xor    %ebx,%ebx
  40379a:	e9 d0 fe ff ff       	jmpq   40366f <encode+0x1bf>
  40379f:	48 8b 05 62 7b 20 00 	mov    0x207b62(%rip),%rax        # 60b308 <trans_ptr>
  4037a6:	0f be 38             	movsbl (%rax),%edi
  4037a9:	e9 1f ff ff ff       	jmpq   4036cd <encode+0x21d>
  4037ae:	e8 ed d1 ff ff       	callq  4009a0 <__stack_chk_fail@plt>
  4037b3:	66 66 66 66 2e 0f 1f 	data32 data32 data32 nopw %cs:0x0(%rax,%rax,1)
  4037ba:	84 00 00 00 00 00 

00000000004037c0 <uu_send_buf>:
  4037c0:	55                   	push   %rbp
  4037c1:	31 c0                	xor    %eax,%eax
  4037c3:	89 f5                	mov    %esi,%ebp
  4037c5:	be 80 01 00 00       	mov    $0x180,%esi
  4037ca:	53                   	push   %rbx
  4037cb:	48 89 fb             	mov    %rdi,%rbx
  4037ce:	bf d3 98 40 00       	mov    $0x4098d3,%edi
  4037d3:	48 83 ec 08          	sub    $0x8,%rsp
  4037d7:	e8 84 e9 ff ff       	callq  402160 <t_printf>
  4037dc:	89 ee                	mov    %ebp,%esi
  4037de:	48 89 df             	mov    %rbx,%rdi
  4037e1:	e8 ca fc ff ff       	callq  4034b0 <encode>
  4037e6:	bf bb 92 40 00       	mov    $0x4092bb,%edi
  4037eb:	31 c0                	xor    %eax,%eax
  4037ed:	e8 6e e9 ff ff       	callq  402160 <t_printf>
  4037f2:	48 83 c4 08          	add    $0x8,%rsp
  4037f6:	31 c0                	xor    %eax,%eax
  4037f8:	5b                   	pop    %rbx
  4037f9:	5d                   	pop    %rbp
  4037fa:	c3                   	retq   
  4037fb:	0f 1f 44 00 00       	nopl   0x0(%rax,%rax,1)

0000000000403800 <mem_mgr_init>:
  403800:	48 83 ec 08          	sub    $0x8,%rsp
  403804:	48 83 3d 1c 7c 20 00 	cmpq   $0x0,0x207c1c(%rip)        # 60b428 <mem_base>
  40380b:	00 
  40380c:	74 52                	je     403860 <mem_mgr_init+0x60>
  40380e:	48 8b 05 0b 7c 20 00 	mov    0x207c0b(%rip),%rax        # 60b420 <mem_size>
  403815:	48 85 c0             	test   %rax,%rax
  403818:	75 2a                	jne    403844 <mem_mgr_init+0x44>
  40381a:	bf 40 99 40 00       	mov    $0x409940,%edi
  40381f:	e8 6c ee ff ff       	callq  402690 <efn>
  403824:	b9 79 00 00 00       	mov    $0x79,%ecx
  403829:	48 89 c2             	mov    %rax,%rdx
  40382c:	be 20 9a 40 00       	mov    $0x409a20,%esi
  403831:	31 c0                	xor    %eax,%eax
  403833:	bf 02 80 ff ff       	mov    $0xffff8002,%edi
  403838:	e8 c3 ed ff ff       	callq  402600 <t_exit>
  40383d:	48 8b 05 dc 7b 20 00 	mov    0x207bdc(%rip),%rax        # 60b420 <mem_size>
  403844:	48 8b 15 dd 7b 20 00 	mov    0x207bdd(%rip),%rdx        # 60b428 <mem_base>
  40384b:	48 89 05 66 89 20 00 	mov    %rax,0x208966(%rip)        # 60c1b8 <heap_size>
  403852:	48 89 15 67 89 20 00 	mov    %rdx,0x208967(%rip)        # 60c1c0 <heap_base>
  403859:	48 83 c4 08          	add    $0x8,%rsp
  40385d:	c3                   	retq   
  40385e:	66 90                	xchg   %ax,%ax
  403860:	bf 40 99 40 00       	mov    $0x409940,%edi
  403865:	e8 26 ee ff ff       	callq  402690 <efn>
  40386a:	b9 76 00 00 00       	mov    $0x76,%ecx
  40386f:	48 89 c2             	mov    %rax,%rdx
  403872:	be f8 99 40 00       	mov    $0x4099f8,%esi
  403877:	bf 02 80 ff ff       	mov    $0xffff8002,%edi
  40387c:	31 c0                	xor    %eax,%eax
  40387e:	e8 7d ed ff ff       	callq  402600 <t_exit>
  403883:	eb 89                	jmp    40380e <mem_mgr_init+0xe>
  403885:	66 66 2e 0f 1f 84 00 	data32 nopw %cs:0x0(%rax,%rax,1)
  40388c:	00 00 00 00 

0000000000403890 <mem_heap_initialize>:
  403890:	f3 c3                	repz retq 
  403892:	66 66 66 66 66 2e 0f 	data32 data32 data32 data32 nopw %cs:0x0(%rax,%rax,1)
  403899:	1f 84 00 00 00 00 00 

00000000004038a0 <mem_alloc_file_space>:
  4038a0:	41 54                	push   %r12
  4038a2:	48 8d 46 03          	lea    0x3(%rsi),%rax
  4038a6:	55                   	push   %rbp
  4038a7:	48 83 e0 fc          	and    $0xfffffffffffffffc,%rax
  4038ab:	48 89 f5             	mov    %rsi,%rbp
  4038ae:	48 8d 90 40 11 00 00 	lea    0x1140(%rax),%rdx
  4038b5:	4c 8d a0 40 01 00 00 	lea    0x140(%rax),%r12
  4038bc:	31 c0                	xor    %eax,%eax
  4038be:	53                   	push   %rbx
  4038bf:	48 8b 1d f2 88 20 00 	mov    0x2088f2(%rip),%rbx        # 60c1b8 <heap_size>
  4038c6:	48 39 da             	cmp    %rbx,%rdx
  4038c9:	77 5a                	ja     403925 <mem_alloc_file_space+0x85>
  4038cb:	4c 29 e3             	sub    %r12,%rbx
  4038ce:	48 89 fe             	mov    %rdi,%rsi
  4038d1:	ba 80 00 00 00       	mov    $0x80,%edx
  4038d6:	48 89 1d db 88 20 00 	mov    %rbx,0x2088db(%rip)        # 60c1b8 <heap_size>
  4038dd:	48 03 1d dc 88 20 00 	add    0x2088dc(%rip),%rbx        # 60c1c0 <heap_base>
  4038e4:	48 89 df             	mov    %rbx,%rdi
  4038e7:	e8 24 06 00 00       	callq  403f10 <cpystr>
  4038ec:	48 8d 83 40 01 00 00 	lea    0x140(%rbx),%rax
  4038f3:	83 05 b6 88 20 00 01 	addl   $0x1,0x2088b6(%rip)        # 60c1b0 <file_count>
  4038fa:	48 89 ab 80 00 00 00 	mov    %rbp,0x80(%rbx)
  403901:	4c 89 a3 98 00 00 00 	mov    %r12,0x98(%rbx)
  403908:	48 89 1d 99 88 20 00 	mov    %rbx,0x208899(%rip)        # 60c1a8 <first_file>
  40390f:	48 89 83 88 00 00 00 	mov    %rax,0x88(%rbx)
  403916:	b8 ff ff ff ff       	mov    $0xffffffff,%eax
  40391b:	48 89 83 90 00 00 00 	mov    %rax,0x90(%rbx)
  403922:	48 89 d8             	mov    %rbx,%rax
  403925:	5b                   	pop    %rbx
  403926:	5d                   	pop    %rbp
  403927:	41 5c                	pop    %r12
  403929:	c3                   	retq   
  40392a:	66 0f 1f 44 00 00    	nopw   0x0(%rax,%rax,1)

0000000000403930 <mem_report_files>:
  403930:	8b 15 7a 88 20 00    	mov    0x20887a(%rip),%edx        # 60c1b0 <file_count>
  403936:	85 d2                	test   %edx,%edx
  403938:	0f 84 8a 00 00 00    	je     4039c8 <mem_report_files+0x98>
  40393e:	55                   	push   %rbp
  40393f:	bf ae 91 40 00       	mov    $0x4091ae,%edi
  403944:	31 c0                	xor    %eax,%eax
  403946:	31 ed                	xor    %ebp,%ebp
  403948:	53                   	push   %rbx
  403949:	48 83 ec 08          	sub    $0x8,%rsp
  40394d:	e8 0e e8 ff ff       	callq  402160 <t_printf>
  403952:	bf 48 9a 40 00       	mov    $0x409a48,%edi
  403957:	31 c0                	xor    %eax,%eax
  403959:	e8 02 e8 ff ff       	callq  402160 <t_printf>
  40395e:	31 c0                	xor    %eax,%eax
  403960:	bf 70 9a 40 00       	mov    $0x409a70,%edi
  403965:	e8 f6 e7 ff ff       	callq  402160 <t_printf>
  40396a:	8b 05 40 88 20 00    	mov    0x208840(%rip),%eax        # 60c1b0 <file_count>
  403970:	48 8b 1d 31 88 20 00 	mov    0x208831(%rip),%rbx        # 60c1a8 <first_file>
  403977:	85 c0                	test   %eax,%eax
  403979:	7e 36                	jle    4039b1 <mem_report_files+0x81>
  40397b:	0f 1f 44 00 00       	nopl   0x0(%rax,%rax,1)
  403980:	48 8b 8b 80 00 00 00 	mov    0x80(%rbx),%rcx
  403987:	48 8b 93 90 00 00 00 	mov    0x90(%rbx),%rdx
  40398e:	83 c5 01             	add    $0x1,%ebp
  403991:	49 89 d8             	mov    %rbx,%r8
  403994:	31 c0                	xor    %eax,%eax
  403996:	89 ee                	mov    %ebp,%esi
  403998:	bf c0 9a 40 00       	mov    $0x409ac0,%edi
  40399d:	e8 be e7 ff ff       	callq  402160 <t_printf>
  4039a2:	48 03 9b 98 00 00 00 	add    0x98(%rbx),%rbx
  4039a9:	39 2d 01 88 20 00    	cmp    %ebp,0x208801(%rip)        # 60c1b0 <file_count>
  4039af:	7f cf                	jg     403980 <mem_report_files+0x50>
  4039b1:	48 83 c4 08          	add    $0x8,%rsp
  4039b5:	bf ad 91 40 00       	mov    $0x4091ad,%edi
  4039ba:	31 c0                	xor    %eax,%eax
  4039bc:	5b                   	pop    %rbx
  4039bd:	5d                   	pop    %rbp
  4039be:	e9 9d e7 ff ff       	jmpq   402160 <t_printf>
  4039c3:	0f 1f 44 00 00       	nopl   0x0(%rax,%rax,1)
  4039c8:	bf 53 99 40 00       	mov    $0x409953,%edi
  4039cd:	31 c0                	xor    %eax,%eax
  4039cf:	e9 8c e7 ff ff       	jmpq   402160 <t_printf>
  4039d4:	66 66 66 2e 0f 1f 84 	data32 data32 nopw %cs:0x0(%rax,%rax,1)
  4039db:	00 00 00 00 00 

00000000004039e0 <mem_report_info>:
  4039e0:	55                   	push   %rbp
  4039e1:	bf 62 99 40 00       	mov    $0x409962,%edi
  4039e6:	31 c0                	xor    %eax,%eax
  4039e8:	53                   	push   %rbx
  4039e9:	48 83 ec 08          	sub    $0x8,%rsp
  4039ed:	48 8b 35 34 7a 20 00 	mov    0x207a34(%rip),%rsi        # 60b428 <mem_base>
  4039f4:	48 8b 2d 25 7a 20 00 	mov    0x207a25(%rip),%rbp        # 60b420 <mem_size>
  4039fb:	48 8b 1d b6 87 20 00 	mov    0x2087b6(%rip),%rbx        # 60c1b8 <heap_size>
  403a02:	e8 59 e7 ff ff       	callq  402160 <t_printf>
  403a07:	bf 7d 99 40 00       	mov    $0x40997d,%edi
  403a0c:	31 c0                	xor    %eax,%eax
  403a0e:	e8 4d e7 ff ff       	callq  402160 <t_printf>
  403a13:	48 8b 35 06 7a 20 00 	mov    0x207a06(%rip),%rsi        # 60b420 <mem_size>
  403a1a:	bf 96 99 40 00       	mov    $0x409996,%edi
  403a1f:	31 c0                	xor    %eax,%eax
  403a21:	e8 3a e7 ff ff       	callq  402160 <t_printf>
  403a26:	bf 9b 99 40 00       	mov    $0x40999b,%edi
  403a2b:	31 c0                	xor    %eax,%eax
  403a2d:	e8 2e e7 ff ff       	callq  402160 <t_printf>
  403a32:	48 8b 35 e7 79 20 00 	mov    0x2079e7(%rip),%rsi        # 60b420 <mem_size>
  403a39:	31 c0                	xor    %eax,%eax
  403a3b:	bf 96 99 40 00       	mov    $0x409996,%edi
  403a40:	e8 1b e7 ff ff       	callq  402160 <t_printf>
  403a45:	8b 05 65 87 20 00    	mov    0x208765(%rip),%eax        # 60c1b0 <file_count>
  403a4b:	85 c0                	test   %eax,%eax
  403a4d:	74 58                	je     403aa7 <mem_report_info+0xc7>
  403a4f:	bf ae 91 40 00       	mov    $0x4091ae,%edi
  403a54:	31 c0                	xor    %eax,%eax
  403a56:	48 29 dd             	sub    %rbx,%rbp
  403a59:	e8 02 e7 ff ff       	callq  402160 <t_printf>
  403a5e:	48 8b 35 43 87 20 00 	mov    0x208743(%rip),%rsi        # 60c1a8 <first_file>
  403a65:	bf a0 99 40 00       	mov    $0x4099a0,%edi
  403a6a:	31 c0                	xor    %eax,%eax
  403a6c:	e8 ef e6 ff ff       	callq  402160 <t_printf>
  403a71:	bf bb 99 40 00       	mov    $0x4099bb,%edi
  403a76:	31 c0                	xor    %eax,%eax
  403a78:	e8 e3 e6 ff ff       	callq  402160 <t_printf>
  403a7d:	48 89 ee             	mov    %rbp,%rsi
  403a80:	bf 96 99 40 00       	mov    $0x409996,%edi
  403a85:	31 c0                	xor    %eax,%eax
  403a87:	e8 d4 e6 ff ff       	callq  402160 <t_printf>
  403a8c:	bf 9b 99 40 00       	mov    $0x40999b,%edi
  403a91:	31 c0                	xor    %eax,%eax
  403a93:	e8 c8 e6 ff ff       	callq  402160 <t_printf>
  403a98:	48 89 ee             	mov    %rbp,%rsi
  403a9b:	bf 96 99 40 00       	mov    $0x409996,%edi
  403aa0:	31 c0                	xor    %eax,%eax
  403aa2:	e8 b9 e6 ff ff       	callq  402160 <t_printf>
  403aa7:	bf ae 91 40 00       	mov    $0x4091ae,%edi
  403aac:	31 c0                	xor    %eax,%eax
  403aae:	e8 ad e6 ff ff       	callq  402160 <t_printf>
  403ab3:	bf d4 99 40 00       	mov    $0x4099d4,%edi
  403ab8:	31 c0                	xor    %eax,%eax
  403aba:	e8 a1 e6 ff ff       	callq  402160 <t_printf>
  403abf:	48 83 c4 08          	add    $0x8,%rsp
  403ac3:	bf ae 91 40 00       	mov    $0x4091ae,%edi
  403ac8:	31 c0                	xor    %eax,%eax
  403aca:	5b                   	pop    %rbx
  403acb:	5d                   	pop    %rbp
  403acc:	e9 8f e6 ff ff       	jmpq   402160 <t_printf>
  403ad1:	66 66 66 66 66 66 2e 	data32 data32 data32 data32 data32 nopw %cs:0x0(%rax,%rax,1)
  403ad8:	0f 1f 84 00 00 00 00 
  403adf:	00 

0000000000403ae0 <mem_delete_newest_file>:
  403ae0:	8b 15 ca 86 20 00    	mov    0x2086ca(%rip),%edx        # 60c1b0 <file_count>
  403ae6:	31 c0                	xor    %eax,%eax
  403ae8:	85 d2                	test   %edx,%edx
  403aea:	74 47                	je     403b33 <mem_delete_newest_file+0x53>
  403aec:	48 8b 0d b5 86 20 00 	mov    0x2086b5(%rip),%rcx        # 60c1a8 <first_file>
  403af3:	8d 42 ff             	lea    -0x1(%rdx),%eax
  403af6:	48 8b 15 bb 86 20 00 	mov    0x2086bb(%rip),%rdx        # 60c1b8 <heap_size>
  403afd:	89 05 ad 86 20 00    	mov    %eax,0x2086ad(%rip)        # 60c1b0 <file_count>
  403b03:	48 03 91 98 00 00 00 	add    0x98(%rcx),%rdx
  403b0a:	85 c0                	test   %eax,%eax
  403b0c:	48 89 15 a5 86 20 00 	mov    %rdx,0x2086a5(%rip)        # 60c1b8 <heap_size>
  403b13:	7e 13                	jle    403b28 <mem_delete_newest_file+0x48>
  403b15:	48 03 15 a4 86 20 00 	add    0x2086a4(%rip),%rdx        # 60c1c0 <heap_base>
  403b1c:	48 89 15 85 86 20 00 	mov    %rdx,0x208685(%rip)        # 60c1a8 <first_file>
  403b23:	c3                   	retq   
  403b24:	0f 1f 40 00          	nopl   0x0(%rax)
  403b28:	48 c7 05 75 86 20 00 	movq   $0x0,0x208675(%rip)        # 60c1a8 <first_file>
  403b2f:	00 00 00 00 
  403b33:	f3 c3                	repz retq 
  403b35:	66 66 2e 0f 1f 84 00 	data32 nopw %cs:0x0(%rax,%rax,1)
  403b3c:	00 00 00 00 

0000000000403b40 <mem_delete_all_files>:
  403b40:	e8 9b ff ff ff       	callq  403ae0 <mem_delete_newest_file>
  403b45:	85 c0                	test   %eax,%eax
  403b47:	75 f7                	jne    403b40 <mem_delete_all_files>
  403b49:	f3 c3                	repz retq 
  403b4b:	0f 1f 44 00 00       	nopl   0x0(%rax,%rax,1)

0000000000403b50 <mem_get_file_def>:
  403b50:	41 55                	push   %r13
  403b52:	41 54                	push   %r12
  403b54:	55                   	push   %rbp
  403b55:	53                   	push   %rbx
  403b56:	48 83 ec 08          	sub    $0x8,%rsp
  403b5a:	44 8b 25 4f 86 20 00 	mov    0x20864f(%rip),%r12d        # 60c1b0 <file_count>
  403b61:	48 8b 1d 40 86 20 00 	mov    0x208640(%rip),%rbx        # 60c1a8 <first_file>
  403b68:	45 85 e4             	test   %r12d,%r12d
  403b6b:	7e 3b                	jle    403ba8 <mem_get_file_def+0x58>
  403b6d:	49 89 fd             	mov    %rdi,%r13
  403b70:	31 ed                	xor    %ebp,%ebp
  403b72:	eb 13                	jmp    403b87 <mem_get_file_def+0x37>
  403b74:	0f 1f 40 00          	nopl   0x0(%rax)
  403b78:	83 c5 01             	add    $0x1,%ebp
  403b7b:	48 03 9b 98 00 00 00 	add    0x98(%rbx),%rbx
  403b82:	44 39 e5             	cmp    %r12d,%ebp
  403b85:	74 21                	je     403ba8 <mem_get_file_def+0x58>
  403b87:	4c 89 ee             	mov    %r13,%rsi
  403b8a:	48 89 df             	mov    %rbx,%rdi
  403b8d:	e8 4e ce ff ff       	callq  4009e0 <strcmp@plt>
  403b92:	85 c0                	test   %eax,%eax
  403b94:	75 e2                	jne    403b78 <mem_get_file_def+0x28>
  403b96:	48 83 c4 08          	add    $0x8,%rsp
  403b9a:	48 89 d8             	mov    %rbx,%rax
  403b9d:	5b                   	pop    %rbx
  403b9e:	5d                   	pop    %rbp
  403b9f:	41 5c                	pop    %r12
  403ba1:	41 5d                	pop    %r13
  403ba3:	c3                   	retq   
  403ba4:	0f 1f 40 00          	nopl   0x0(%rax)
  403ba8:	48 83 c4 08          	add    $0x8,%rsp
  403bac:	31 c0                	xor    %eax,%eax
  403bae:	5b                   	pop    %rbx
  403baf:	5d                   	pop    %rbp
  403bb0:	41 5c                	pop    %r12
  403bb2:	41 5d                	pop    %r13
  403bb4:	c3                   	retq   
  403bb5:	66 66 2e 0f 1f 84 00 	data32 nopw %cs:0x0(%rax,%rax,1)
  403bbc:	00 00 00 00 

0000000000403bc0 <mem_get_file_num>:
  403bc0:	8b 0d ea 85 20 00    	mov    0x2085ea(%rip),%ecx        # 60c1b0 <file_count>
  403bc6:	85 c9                	test   %ecx,%ecx
  403bc8:	74 3e                	je     403c08 <mem_get_file_num+0x48>
  403bca:	39 f9                	cmp    %edi,%ecx
  403bcc:	7e 3a                	jle    403c08 <mem_get_file_num+0x48>
  403bce:	85 ff                	test   %edi,%edi
  403bd0:	78 36                	js     403c08 <mem_get_file_num+0x48>
  403bd2:	85 c9                	test   %ecx,%ecx
  403bd4:	48 8b 05 cd 85 20 00 	mov    0x2085cd(%rip),%rax        # 60c1a8 <first_file>
  403bdb:	7e 1d                	jle    403bfa <mem_get_file_num+0x3a>
  403bdd:	85 ff                	test   %edi,%edi
  403bdf:	74 19                	je     403bfa <mem_get_file_num+0x3a>
  403be1:	31 d2                	xor    %edx,%edx
  403be3:	eb 07                	jmp    403bec <mem_get_file_num+0x2c>
  403be5:	0f 1f 00             	nopl   (%rax)
  403be8:	39 d7                	cmp    %edx,%edi
  403bea:	74 14                	je     403c00 <mem_get_file_num+0x40>
  403bec:	83 c2 01             	add    $0x1,%edx
  403bef:	48 03 80 98 00 00 00 	add    0x98(%rax),%rax
  403bf6:	39 ca                	cmp    %ecx,%edx
  403bf8:	75 ee                	jne    403be8 <mem_get_file_num+0x28>
  403bfa:	f3 c3                	repz retq 
  403bfc:	0f 1f 40 00          	nopl   0x0(%rax)
  403c00:	f3 c3                	repz retq 
  403c02:	66 0f 1f 44 00 00    	nopw   0x0(%rax,%rax,1)
  403c08:	31 c0                	xor    %eax,%eax
  403c0a:	66 0f 1f 44 00 00    	nopw   0x0(%rax,%rax,1)
  403c10:	c3                   	retq   
  403c11:	66 2e 0f 1f 84 00 00 	nopw   %cs:0x0(%rax,%rax,1)
  403c18:	00 00 00 
  403c1b:	0f 1f 44 00 00       	nopl   0x0(%rax,%rax,1)

0000000000403c20 <last_char>:
  403c20:	53                   	push   %rbx
  403c21:	48 89 fb             	mov    %rdi,%rbx
  403c24:	e8 67 cd ff ff       	callq  400990 <strlen@plt>
  403c29:	31 d2                	xor    %edx,%edx
  403c2b:	85 c0                	test   %eax,%eax
  403c2d:	74 07                	je     403c36 <last_char+0x16>
  403c2f:	48 98                	cltq   
  403c31:	0f b6 54 03 ff       	movzbl -0x1(%rbx,%rax,1),%edx
  403c36:	89 d0                	mov    %edx,%eax
  403c38:	5b                   	pop    %rbx
  403c39:	c3                   	retq   
  403c3a:	66 0f 1f 44 00 00    	nopw   0x0(%rax,%rax,1)

0000000000403c40 <char_remove>:
  403c40:	48 63 f6             	movslq %esi,%rsi
  403c43:	48 8d 14 37          	lea    (%rdi,%rsi,1),%rdx
  403c47:	48 8d 44 37 01       	lea    0x1(%rdi,%rsi,1),%rax
  403c4c:	80 3a 00             	cmpb   $0x0,(%rdx)
  403c4f:	74 21                	je     403c72 <char_remove+0x32>
  403c51:	0f 1f 80 00 00 00 00 	nopl   0x0(%rax)
  403c58:	0f b6 4c 37 01       	movzbl 0x1(%rdi,%rsi,1),%ecx
  403c5d:	48 89 c6             	mov    %rax,%rsi
  403c60:	48 29 fe             	sub    %rdi,%rsi
  403c63:	88 0a                	mov    %cl,(%rdx)
  403c65:	48 89 c2             	mov    %rax,%rdx
  403c68:	48 83 c0 01          	add    $0x1,%rax
  403c6c:	80 78 ff 00          	cmpb   $0x0,-0x1(%rax)
  403c70:	75 e6                	jne    403c58 <char_remove+0x18>
  403c72:	f3 c3                	repz retq 
  403c74:	66 66 66 2e 0f 1f 84 	data32 data32 nopw %cs:0x0(%rax,%rax,1)
  403c7b:	00 00 00 00 00 

0000000000403c80 <char_remove_n>:
  403c80:	85 d2                	test   %edx,%edx
  403c82:	7e 44                	jle    403cc8 <char_remove_n+0x48>
  403c84:	8d 0c 32             	lea    (%rdx,%rsi,1),%ecx
  403c87:	48 63 c9             	movslq %ecx,%rcx
  403c8a:	80 7c 0f ff 00       	cmpb   $0x0,-0x1(%rdi,%rcx,1)
  403c8f:	74 37                	je     403cc8 <char_remove_n+0x48>
  403c91:	44 8d 46 01          	lea    0x1(%rsi),%r8d
  403c95:	48 63 d2             	movslq %edx,%rdx
  403c98:	48 63 f6             	movslq %esi,%rsi
  403c9b:	48 29 d6             	sub    %rdx,%rsi
  403c9e:	4d 63 c0             	movslq %r8d,%r8
  403ca1:	4c 29 c6             	sub    %r8,%rsi
  403ca4:	49 8d 04 10          	lea    (%r8,%rdx,1),%rax
  403ca8:	48 01 fe             	add    %rdi,%rsi
  403cab:	eb 09                	jmp    403cb6 <char_remove_n+0x36>
  403cad:	0f 1f 00             	nopl   (%rax)
  403cb0:	48 89 c1             	mov    %rax,%rcx
  403cb3:	48 89 d0             	mov    %rdx,%rax
  403cb6:	0f b6 14 0f          	movzbl (%rdi,%rcx,1),%edx
  403cba:	88 14 06             	mov    %dl,(%rsi,%rax,1)
  403cbd:	80 7c 07 ff 00       	cmpb   $0x0,-0x1(%rdi,%rax,1)
  403cc2:	48 8d 50 01          	lea    0x1(%rax),%rdx
  403cc6:	75 e8                	jne    403cb0 <char_remove_n+0x30>
  403cc8:	f3 c3                	repz retq 
  403cca:	66 0f 1f 44 00 00    	nopw   0x0(%rax,%rax,1)

0000000000403cd0 <make_simple_nl>:
  403cd0:	0f b6 07             	movzbl (%rdi),%eax
  403cd3:	84 c0                	test   %al,%al
  403cd5:	75 17                	jne    403cee <make_simple_nl+0x1e>
  403cd7:	e9 86 00 00 00       	jmpq   403d62 <make_simple_nl+0x92>
  403cdc:	0f 1f 40 00          	nopl   0x0(%rax)
  403ce0:	48 8d 77 01          	lea    0x1(%rdi),%rsi
  403ce4:	0f b6 06             	movzbl (%rsi),%eax
  403ce7:	48 89 f7             	mov    %rsi,%rdi
  403cea:	84 c0                	test   %al,%al
  403cec:	74 72                	je     403d60 <make_simple_nl+0x90>
  403cee:	3c 0d                	cmp    $0xd,%al
  403cf0:	75 ee                	jne    403ce0 <make_simple_nl+0x10>
  403cf2:	0f b6 17             	movzbl (%rdi),%edx
  403cf5:	80 fa 0d             	cmp    $0xd,%dl
  403cf8:	75 6a                	jne    403d64 <make_simple_nl+0x94>
  403cfa:	48 8d 77 01          	lea    0x1(%rdi),%rsi
  403cfe:	31 c9                	xor    %ecx,%ecx
  403d00:	48 89 f0             	mov    %rsi,%rax
  403d03:	0f 1f 44 00 00       	nopl   0x0(%rax,%rax,1)
  403d08:	48 83 c0 01          	add    $0x1,%rax
  403d0c:	0f b6 50 ff          	movzbl -0x1(%rax),%edx
  403d10:	83 c1 01             	add    $0x1,%ecx
  403d13:	80 fa 0d             	cmp    $0xd,%dl
  403d16:	74 f0                	je     403d08 <make_simple_nl+0x38>
  403d18:	80 fa 0a             	cmp    $0xa,%dl
  403d1b:	75 c7                	jne    403ce4 <make_simple_nl+0x14>
  403d1d:	48 63 c9             	movslq %ecx,%rcx
  403d20:	80 7c 0f ff 00       	cmpb   $0x0,-0x1(%rdi,%rcx,1)
  403d25:	74 bd                	je     403ce4 <make_simple_nl+0x14>
  403d27:	49 89 f8             	mov    %rdi,%r8
  403d2a:	48 8d 41 01          	lea    0x1(%rcx),%rax
  403d2e:	49 29 c8             	sub    %rcx,%r8
  403d31:	eb 0b                	jmp    403d3e <make_simple_nl+0x6e>
  403d33:	0f 1f 44 00 00       	nopl   0x0(%rax,%rax,1)
  403d38:	48 89 c1             	mov    %rax,%rcx
  403d3b:	48 89 d0             	mov    %rdx,%rax
  403d3e:	0f b6 14 0f          	movzbl (%rdi,%rcx,1),%edx
  403d42:	41 88 54 00 ff       	mov    %dl,-0x1(%r8,%rax,1)
  403d47:	80 7c 07 ff 00       	cmpb   $0x0,-0x1(%rdi,%rax,1)
  403d4c:	48 8d 50 01          	lea    0x1(%rax),%rdx
  403d50:	75 e6                	jne    403d38 <make_simple_nl+0x68>
  403d52:	0f b6 06             	movzbl (%rsi),%eax
  403d55:	48 89 f7             	mov    %rsi,%rdi
  403d58:	84 c0                	test   %al,%al
  403d5a:	75 92                	jne    403cee <make_simple_nl+0x1e>
  403d5c:	0f 1f 40 00          	nopl   0x0(%rax)
  403d60:	f3 c3                	repz retq 
  403d62:	f3 c3                	repz retq 
  403d64:	31 c9                	xor    %ecx,%ecx
  403d66:	80 fa 0a             	cmp    $0xa,%dl
  403d69:	48 8d 77 01          	lea    0x1(%rdi),%rsi
  403d6d:	0f 85 71 ff ff ff    	jne    403ce4 <make_simple_nl+0x14>
  403d73:	eb a8                	jmp    403d1d <make_simple_nl+0x4d>
  403d75:	66 66 2e 0f 1f 84 00 	data32 nopw %cs:0x0(%rax,%rax,1)
  403d7c:	00 00 00 00 

0000000000403d80 <strip_l_spaces>:
  403d80:	53                   	push   %rbx
  403d81:	48 89 fb             	mov    %rdi,%rbx
  403d84:	e8 e7 cc ff ff       	callq  400a70 <__ctype_b_loc@plt>
  403d89:	48 8b 38             	mov    (%rax),%rdi
  403d8c:	31 c0                	xor    %eax,%eax
  403d8e:	66 90                	xchg   %ax,%ax
  403d90:	0f b6 14 03          	movzbl (%rbx,%rax,1),%edx
  403d94:	48 63 f0             	movslq %eax,%rsi
  403d97:	49 89 c0             	mov    %rax,%r8
  403d9a:	48 83 c0 01          	add    $0x1,%rax
  403d9e:	48 0f be ca          	movsbq %dl,%rcx
  403da2:	f6 44 4f 01 20       	testb  $0x20,0x1(%rdi,%rcx,2)
  403da7:	75 e7                	jne    403d90 <strip_l_spaces+0x10>
  403da9:	85 f6                	test   %esi,%esi
  403dab:	74 23                	je     403dd0 <strip_l_spaces+0x50>
  403dad:	42 80 7c 03 ff 00    	cmpb   $0x0,-0x1(%rbx,%r8,1)
  403db3:	74 1b                	je     403dd0 <strip_l_spaces+0x50>
  403db5:	48 8d 3c 33          	lea    (%rbx,%rsi,1),%rdi
  403db9:	48 f7 de             	neg    %rsi
  403dbc:	eb 05                	jmp    403dc3 <strip_l_spaces+0x43>
  403dbe:	66 90                	xchg   %ax,%ax
  403dc0:	0f b6 17             	movzbl (%rdi),%edx
  403dc3:	88 14 37             	mov    %dl,(%rdi,%rsi,1)
  403dc6:	48 83 c7 01          	add    $0x1,%rdi
  403dca:	80 7f ff 00          	cmpb   $0x0,-0x1(%rdi)
  403dce:	75 f0                	jne    403dc0 <strip_l_spaces+0x40>
  403dd0:	5b                   	pop    %rbx
  403dd1:	c3                   	retq   
  403dd2:	66 66 66 66 66 2e 0f 	data32 data32 data32 data32 nopw %cs:0x0(%rax,%rax,1)
  403dd9:	1f 84 00 00 00 00 00 

0000000000403de0 <strip_t_spaces>:
  403de0:	55                   	push   %rbp
  403de1:	53                   	push   %rbx
  403de2:	48 89 fb             	mov    %rdi,%rbx
  403de5:	48 83 ec 08          	sub    $0x8,%rsp
  403de9:	e8 a2 cb ff ff       	callq  400990 <strlen@plt>
  403dee:	85 c0                	test   %eax,%eax
  403df0:	48 89 c5             	mov    %rax,%rbp
  403df3:	7e 36                	jle    403e2b <strip_t_spaces+0x4b>
  403df5:	83 ed 01             	sub    $0x1,%ebp
  403df8:	e8 73 cc ff ff       	callq  400a70 <__ctype_b_loc@plt>
  403dfd:	48 63 d5             	movslq %ebp,%rdx
  403e00:	48 8b 30             	mov    (%rax),%rsi
  403e03:	48 8d 4a ff          	lea    -0x1(%rdx),%rcx
  403e07:	48 29 e9             	sub    %rbp,%rcx
  403e0a:	66 0f 1f 44 00 00    	nopw   0x0(%rax,%rax,1)
  403e10:	48 0f be 04 13       	movsbq (%rbx,%rdx,1),%rax
  403e15:	f6 44 46 01 20       	testb  $0x20,0x1(%rsi,%rax,2)
  403e1a:	74 1c                	je     403e38 <strip_t_spaces+0x58>
  403e1c:	48 83 ea 01          	sub    $0x1,%rdx
  403e20:	48 39 ca             	cmp    %rcx,%rdx
  403e23:	75 eb                	jne    403e10 <strip_t_spaces+0x30>
  403e25:	31 d2                	xor    %edx,%edx
  403e27:	c6 04 13 00          	movb   $0x0,(%rbx,%rdx,1)
  403e2b:	48 83 c4 08          	add    $0x8,%rsp
  403e2f:	5b                   	pop    %rbx
  403e30:	5d                   	pop    %rbp
  403e31:	c3                   	retq   
  403e32:	66 0f 1f 44 00 00    	nopw   0x0(%rax,%rax,1)
  403e38:	48 83 c2 01          	add    $0x1,%rdx
  403e3c:	eb e9                	jmp    403e27 <strip_t_spaces+0x47>
  403e3e:	66 90                	xchg   %ax,%ax

0000000000403e40 <strip_lt_spaces>:
  403e40:	53                   	push   %rbx
  403e41:	48 89 fb             	mov    %rdi,%rbx
  403e44:	e8 27 cc ff ff       	callq  400a70 <__ctype_b_loc@plt>
  403e49:	48 8b 38             	mov    (%rax),%rdi
  403e4c:	31 c0                	xor    %eax,%eax
  403e4e:	66 90                	xchg   %ax,%ax
  403e50:	0f b6 14 03          	movzbl (%rbx,%rax,1),%edx
  403e54:	48 63 f0             	movslq %eax,%rsi
  403e57:	49 89 c0             	mov    %rax,%r8
  403e5a:	48 83 c0 01          	add    $0x1,%rax
  403e5e:	48 0f be ca          	movsbq %dl,%rcx
  403e62:	f6 44 4f 01 20       	testb  $0x20,0x1(%rdi,%rcx,2)
  403e67:	75 e7                	jne    403e50 <strip_lt_spaces+0x10>
  403e69:	85 f6                	test   %esi,%esi
  403e6b:	74 23                	je     403e90 <strip_lt_spaces+0x50>
  403e6d:	42 80 7c 03 ff 00    	cmpb   $0x0,-0x1(%rbx,%r8,1)
  403e73:	74 1b                	je     403e90 <strip_lt_spaces+0x50>
  403e75:	48 8d 04 33          	lea    (%rbx,%rsi,1),%rax
  403e79:	48 f7 de             	neg    %rsi
  403e7c:	eb 05                	jmp    403e83 <strip_lt_spaces+0x43>
  403e7e:	66 90                	xchg   %ax,%ax
  403e80:	0f b6 10             	movzbl (%rax),%edx
  403e83:	88 14 30             	mov    %dl,(%rax,%rsi,1)
  403e86:	48 83 c0 01          	add    $0x1,%rax
  403e8a:	80 78 ff 00          	cmpb   $0x0,-0x1(%rax)
  403e8e:	75 f0                	jne    403e80 <strip_lt_spaces+0x40>
  403e90:	48 89 df             	mov    %rbx,%rdi
  403e93:	5b                   	pop    %rbx
  403e94:	e9 47 ff ff ff       	jmpq   403de0 <strip_t_spaces>
  403e99:	0f 1f 80 00 00 00 00 	nopl   0x0(%rax)

0000000000403ea0 <strip_all_spaces>:
  403ea0:	53                   	push   %rbx
  403ea1:	80 3f 00             	cmpb   $0x0,(%rdi)
  403ea4:	48 89 fb             	mov    %rdi,%rbx
  403ea7:	74 57                	je     403f00 <strip_all_spaces+0x60>
  403ea9:	e8 c2 cb ff ff       	callq  400a70 <__ctype_b_loc@plt>
  403eae:	31 d2                	xor    %edx,%edx
  403eb0:	48 8b 38             	mov    (%rax),%rdi
  403eb3:	45 31 c0             	xor    %r8d,%r8d
  403eb6:	eb 10                	jmp    403ec8 <strip_all_spaces+0x28>
  403eb8:	0f 1f 84 00 00 00 00 	nopl   0x0(%rax,%rax,1)
  403ebf:	00 
  403ec0:	41 83 c0 01          	add    $0x1,%r8d
  403ec4:	48 83 c2 01          	add    $0x1,%rdx
  403ec8:	0f b6 0c 13          	movzbl (%rbx,%rdx,1),%ecx
  403ecc:	41 89 d1             	mov    %edx,%r9d
  403ecf:	48 0f be f1          	movsbq %cl,%rsi
  403ed3:	f6 44 77 01 20       	testb  $0x20,0x1(%rdi,%rsi,2)
  403ed8:	75 e6                	jne    403ec0 <strip_all_spaces+0x20>
  403eda:	45 85 c0             	test   %r8d,%r8d
  403edd:	74 19                	je     403ef8 <strip_all_spaces+0x58>
  403edf:	45 29 c1             	sub    %r8d,%r9d
  403ee2:	84 c9                	test   %cl,%cl
  403ee4:	4d 63 c9             	movslq %r9d,%r9
  403ee7:	42 88 0c 0b          	mov    %cl,(%rbx,%r9,1)
  403eeb:	74 13                	je     403f00 <strip_all_spaces+0x60>
  403eed:	48 8b 38             	mov    (%rax),%rdi
  403ef0:	eb d2                	jmp    403ec4 <strip_all_spaces+0x24>
  403ef2:	66 0f 1f 44 00 00    	nopw   0x0(%rax,%rax,1)
  403ef8:	84 c9                	test   %cl,%cl
  403efa:	75 c8                	jne    403ec4 <strip_all_spaces+0x24>
  403efc:	0f 1f 40 00          	nopl   0x0(%rax)
  403f00:	5b                   	pop    %rbx
  403f01:	c3                   	retq   
  403f02:	66 66 66 66 66 2e 0f 	data32 data32 data32 data32 nopw %cs:0x0(%rax,%rax,1)
  403f09:	1f 84 00 00 00 00 00 

0000000000403f10 <cpystr>:
  403f10:	85 d2                	test   %edx,%edx
  403f12:	b8 01 00 00 00       	mov    $0x1,%eax
  403f17:	74 37                	je     403f50 <cpystr+0x40>
  403f19:	0f b6 06             	movzbl (%rsi),%eax
  403f1c:	0f 1f 40 00          	nopl   0x0(%rax)
  403f20:	84 c0                	test   %al,%al
  403f22:	74 0c                	je     403f30 <cpystr+0x20>
  403f24:	83 ea 01             	sub    $0x1,%edx
  403f27:	88 07                	mov    %al,(%rdi)
  403f29:	74 05                	je     403f30 <cpystr+0x20>
  403f2b:	80 3e 00             	cmpb   $0x0,(%rsi)
  403f2e:	75 10                	jne    403f40 <cpystr+0x30>
  403f30:	c6 07 00             	movb   $0x0,(%rdi)
  403f33:	31 c0                	xor    %eax,%eax
  403f35:	80 3e 00             	cmpb   $0x0,(%rsi)
  403f38:	0f 95 c0             	setne  %al
  403f3b:	c3                   	retq   
  403f3c:	0f 1f 40 00          	nopl   0x0(%rax)
  403f40:	0f b6 46 01          	movzbl 0x1(%rsi),%eax
  403f44:	48 83 c7 01          	add    $0x1,%rdi
  403f48:	48 83 c6 01          	add    $0x1,%rsi
  403f4c:	eb d2                	jmp    403f20 <cpystr+0x10>
  403f4e:	66 90                	xchg   %ax,%ax
  403f50:	f3 c3                	repz retq 
  403f52:	66 66 66 66 66 2e 0f 	data32 data32 data32 data32 nopw %cs:0x0(%rax,%rax,1)
  403f59:	1f 84 00 00 00 00 00 

0000000000403f60 <cpypaddstr>:
  403f60:	85 d2                	test   %edx,%edx
  403f62:	b8 01 00 00 00       	mov    $0x1,%eax
  403f67:	74 57                	je     403fc0 <cpypaddstr+0x60>
  403f69:	0f b6 06             	movzbl (%rsi),%eax
  403f6c:	0f 1f 40 00          	nopl   0x0(%rax)
  403f70:	84 c0                	test   %al,%al
  403f72:	74 0c                	je     403f80 <cpypaddstr+0x20>
  403f74:	83 ea 01             	sub    $0x1,%edx
  403f77:	88 07                	mov    %al,(%rdi)
  403f79:	74 4d                	je     403fc8 <cpypaddstr+0x68>
  403f7b:	80 3e 00             	cmpb   $0x0,(%rsi)
  403f7e:	75 30                	jne    403fb0 <cpypaddstr+0x50>
  403f80:	85 d2                	test   %edx,%edx
  403f82:	48 89 f9             	mov    %rdi,%rcx
  403f85:	74 3b                	je     403fc2 <cpypaddstr+0x62>
  403f87:	83 ea 01             	sub    $0x1,%edx
  403f8a:	89 d0                	mov    %edx,%eax
  403f8c:	48 01 f8             	add    %rdi,%rax
  403f8f:	eb 0b                	jmp    403f9c <cpypaddstr+0x3c>
  403f91:	0f 1f 80 00 00 00 00 	nopl   0x0(%rax)
  403f98:	48 83 c7 01          	add    $0x1,%rdi
  403f9c:	48 39 c7             	cmp    %rax,%rdi
  403f9f:	c6 07 20             	movb   $0x20,(%rdi)
  403fa2:	75 f4                	jne    403f98 <cpypaddstr+0x38>
  403fa4:	48 8d 3c 11          	lea    (%rcx,%rdx,1),%rdi
  403fa8:	31 c0                	xor    %eax,%eax
  403faa:	eb 18                	jmp    403fc4 <cpypaddstr+0x64>
  403fac:	0f 1f 40 00          	nopl   0x0(%rax)
  403fb0:	0f b6 46 01          	movzbl 0x1(%rsi),%eax
  403fb4:	48 83 c7 01          	add    $0x1,%rdi
  403fb8:	48 83 c6 01          	add    $0x1,%rsi
  403fbc:	eb b2                	jmp    403f70 <cpypaddstr+0x10>
  403fbe:	66 90                	xchg   %ax,%ax
  403fc0:	f3 c3                	repz retq 
  403fc2:	31 c0                	xor    %eax,%eax
  403fc4:	c6 07 00             	movb   $0x0,(%rdi)
  403fc7:	c3                   	retq   
  403fc8:	31 c0                	xor    %eax,%eax
  403fca:	80 3e 00             	cmpb   $0x0,(%rsi)
  403fcd:	0f 95 c0             	setne  %al
  403fd0:	eb f2                	jmp    403fc4 <cpypaddstr+0x64>
  403fd2:	66 66 66 66 66 2e 0f 	data32 data32 data32 data32 nopw %cs:0x0(%rax,%rax,1)
  403fd9:	1f 84 00 00 00 00 00 

0000000000403fe0 <is_all_white_space>:
  403fe0:	55                   	push   %rbp
  403fe1:	53                   	push   %rbx
  403fe2:	48 89 fb             	mov    %rdi,%rbx
  403fe5:	48 83 ec 08          	sub    $0x8,%rsp
  403fe9:	48 85 ff             	test   %rdi,%rdi
  403fec:	74 2e                	je     40401c <is_all_white_space+0x3c>
  403fee:	48 0f be 2f          	movsbq (%rdi),%rbp
  403ff2:	b8 01 00 00 00       	mov    $0x1,%eax
  403ff7:	40 84 ed             	test   %bpl,%bpl
  403ffa:	74 25                	je     404021 <is_all_white_space+0x41>
  403ffc:	e8 6f ca ff ff       	callq  400a70 <__ctype_b_loc@plt>
  404001:	48 8b 00             	mov    (%rax),%rax
  404004:	0f 1f 40 00          	nopl   0x0(%rax)
  404008:	48 83 c3 01          	add    $0x1,%rbx
  40400c:	f6 44 68 01 20       	testb  $0x20,0x1(%rax,%rbp,2)
  404011:	74 1d                	je     404030 <is_all_white_space+0x50>
  404013:	48 0f be 2b          	movsbq (%rbx),%rbp
  404017:	40 84 ed             	test   %bpl,%bpl
  40401a:	75 ec                	jne    404008 <is_all_white_space+0x28>
  40401c:	b8 01 00 00 00       	mov    $0x1,%eax
  404021:	48 83 c4 08          	add    $0x8,%rsp
  404025:	5b                   	pop    %rbx
  404026:	5d                   	pop    %rbp
  404027:	c3                   	retq   
  404028:	0f 1f 84 00 00 00 00 	nopl   0x0(%rax,%rax,1)
  40402f:	00 
  404030:	48 83 c4 08          	add    $0x8,%rsp
  404034:	31 c0                	xor    %eax,%eax
  404036:	5b                   	pop    %rbx
  404037:	5d                   	pop    %rbp
  404038:	c3                   	retq   
  404039:	0f 1f 80 00 00 00 00 	nopl   0x0(%rax)

0000000000404040 <paddstr>:
  404040:	eb 11                	jmp    404053 <paddstr+0x13>
  404042:	66 0f 1f 44 00 00    	nopw   0x0(%rax,%rax,1)
  404048:	85 f6                	test   %esi,%esi
  40404a:	74 39                	je     404085 <paddstr+0x45>
  40404c:	83 ee 01             	sub    $0x1,%esi
  40404f:	48 83 c7 01          	add    $0x1,%rdi
  404053:	80 3f 00             	cmpb   $0x0,(%rdi)
  404056:	75 f0                	jne    404048 <paddstr+0x8>
  404058:	85 f6                	test   %esi,%esi
  40405a:	7e 29                	jle    404085 <paddstr+0x45>
  40405c:	83 ee 01             	sub    $0x1,%esi
  40405f:	89 f0                	mov    %esi,%eax
  404061:	48 8d 54 07 01       	lea    0x1(%rdi,%rax,1),%rdx
  404066:	48 89 f8             	mov    %rdi,%rax
  404069:	0f 1f 80 00 00 00 00 	nopl   0x0(%rax)
  404070:	48 83 c0 01          	add    $0x1,%rax
  404074:	c6 40 ff 20          	movb   $0x20,-0x1(%rax)
  404078:	48 39 d0             	cmp    %rdx,%rax
  40407b:	75 f3                	jne    404070 <paddstr+0x30>
  40407d:	48 63 f6             	movslq %esi,%rsi
  404080:	48 8d 7c 37 01       	lea    0x1(%rdi,%rsi,1),%rdi
  404085:	c6 07 00             	movb   $0x0,(%rdi)
  404088:	c3                   	retq   
  404089:	0f 1f 80 00 00 00 00 	nopl   0x0(%rax)

0000000000404090 <tabs_to_spaces>:
  404090:	0f b6 07             	movzbl (%rdi),%eax
  404093:	53                   	push   %rbx
  404094:	84 c0                	test   %al,%al
  404096:	0f 84 a1 00 00 00    	je     40413d <tabs_to_spaces+0xad>
  40409c:	4c 8d 4f 01          	lea    0x1(%rdi),%r9
  4040a0:	45 31 d2             	xor    %r10d,%r10d
  4040a3:	45 31 c0             	xor    %r8d,%r8d
  4040a6:	eb 26                	jmp    4040ce <tabs_to_spaces+0x3e>
  4040a8:	0f 1f 84 00 00 00 00 	nopl   0x0(%rax,%rax,1)
  4040af:	00 
  4040b0:	49 63 d0             	movslq %r8d,%rdx
  4040b3:	41 83 c2 01          	add    $0x1,%r10d
  4040b7:	41 83 c0 01          	add    $0x1,%r8d
  4040bb:	88 82 e0 c1 60 00    	mov    %al,0x60c1e0(%rdx)
  4040c1:	49 83 c1 01          	add    $0x1,%r9
  4040c5:	41 0f b6 41 ff       	movzbl -0x1(%r9),%eax
  4040ca:	84 c0                	test   %al,%al
  4040cc:	74 4e                	je     40411c <tabs_to_spaces+0x8c>
  4040ce:	3c 09                	cmp    $0x9,%al
  4040d0:	75 de                	jne    4040b0 <tabs_to_spaces+0x20>
  4040d2:	41 8d 04 30          	lea    (%r8,%rsi,1),%eax
  4040d6:	41 89 f3             	mov    %esi,%r11d
  4040d9:	99                   	cltd   
  4040da:	f7 fe                	idiv   %esi
  4040dc:	41 29 d3             	sub    %edx,%r11d
  4040df:	74 e0                	je     4040c1 <tabs_to_spaces+0x31>
  4040e1:	43 8d 0c 03          	lea    (%r11,%r8,1),%ecx
  4040e5:	49 63 c0             	movslq %r8d,%rax
  4040e8:	eb 09                	jmp    4040f3 <tabs_to_spaces+0x63>
  4040ea:	66 0f 1f 44 00 00    	nopw   0x0(%rax,%rax,1)
  4040f0:	48 63 c2             	movslq %edx,%rax
  4040f3:	8d 50 01             	lea    0x1(%rax),%edx
  4040f6:	c6 80 e0 c1 60 00 20 	movb   $0x20,0x60c1e0(%rax)
  4040fd:	39 ca                	cmp    %ecx,%edx
  4040ff:	75 ef                	jne    4040f0 <tabs_to_spaces+0x60>
  404101:	49 83 c1 01          	add    $0x1,%r9
  404105:	41 0f b6 41 ff       	movzbl -0x1(%r9),%eax
  40410a:	41 83 eb 01          	sub    $0x1,%r11d
  40410e:	47 8d 44 18 01       	lea    0x1(%r8,%r11,1),%r8d
  404113:	47 8d 54 1a 01       	lea    0x1(%r10,%r11,1),%r10d
  404118:	84 c0                	test   %al,%al
  40411a:	75 b2                	jne    4040ce <tabs_to_spaces+0x3e>
  40411c:	41 8d 5a 01          	lea    0x1(%r10),%ebx
  404120:	4d 63 c0             	movslq %r8d,%r8
  404123:	85 f6                	test   %esi,%esi
  404125:	41 c6 80 e0 c1 60 00 	movb   $0x0,0x60c1e0(%r8)
  40412c:	00 
  40412d:	7e 0a                	jle    404139 <tabs_to_spaces+0xa9>
  40412f:	be e0 c1 60 00       	mov    $0x60c1e0,%esi
  404134:	e8 37 c8 ff ff       	callq  400970 <strcpy@plt>
  404139:	89 d8                	mov    %ebx,%eax
  40413b:	5b                   	pop    %rbx
  40413c:	c3                   	retq   
  40413d:	bb 01 00 00 00       	mov    $0x1,%ebx
  404142:	45 31 c0             	xor    %r8d,%r8d
  404145:	eb d9                	jmp    404120 <tabs_to_spaces+0x90>
  404147:	66 0f 1f 84 00 00 00 	nopw   0x0(%rax,%rax,1)
  40414e:	00 00 

0000000000404150 <conv_to_ui>:
  404150:	0f be 17             	movsbl (%rdi),%edx
  404153:	48 8d 4f 01          	lea    0x1(%rdi),%rcx
  404157:	8d 42 d0             	lea    -0x30(%rdx),%eax
  40415a:	3c 09                	cmp    $0x9,%al
  40415c:	b8 00 00 00 00       	mov    $0x0,%eax
  404161:	77 1f                	ja     404182 <conv_to_ui+0x32>
  404163:	0f 1f 44 00 00       	nopl   0x0(%rax,%rax,1)
  404168:	8d 04 80             	lea    (%rax,%rax,4),%eax
  40416b:	48 83 c1 01          	add    $0x1,%rcx
  40416f:	8d 44 42 d0          	lea    -0x30(%rdx,%rax,2),%eax
  404173:	0f be 51 ff          	movsbl -0x1(%rcx),%edx
  404177:	8d 72 d0             	lea    -0x30(%rdx),%esi
  40417a:	40 80 fe 09          	cmp    $0x9,%sil
  40417e:	76 e8                	jbe    404168 <conv_to_ui+0x18>
  404180:	f3 c3                	repz retq 
  404182:	f3 c3                	repz retq 
  404184:	66 66 66 2e 0f 1f 84 	data32 data32 nopw %cs:0x0(%rax,%rax,1)
  40418b:	00 00 00 00 00 

0000000000404190 <conv_to_ul>:
  404190:	0f be 17             	movsbl (%rdi),%edx
  404193:	48 8d 4f 01          	lea    0x1(%rdi),%rcx
  404197:	8d 42 d0             	lea    -0x30(%rdx),%eax
  40419a:	3c 09                	cmp    $0x9,%al
  40419c:	b8 00 00 00 00       	mov    $0x0,%eax
  4041a1:	77 26                	ja     4041c9 <conv_to_ul+0x39>
  4041a3:	0f 1f 44 00 00       	nopl   0x0(%rax,%rax,1)
  4041a8:	83 ea 30             	sub    $0x30,%edx
  4041ab:	48 8d 04 80          	lea    (%rax,%rax,4),%rax
  4041af:	48 83 c1 01          	add    $0x1,%rcx
  4041b3:	48 63 d2             	movslq %edx,%rdx
  4041b6:	48 8d 04 42          	lea    (%rdx,%rax,2),%rax
  4041ba:	0f be 51 ff          	movsbl -0x1(%rcx),%edx
  4041be:	8d 72 d0             	lea    -0x30(%rdx),%esi
  4041c1:	40 80 fe 09          	cmp    $0x9,%sil
  4041c5:	76 e1                	jbe    4041a8 <conv_to_ul+0x18>
  4041c7:	f3 c3                	repz retq 
  4041c9:	f3 c3                	repz retq 
  4041cb:	0f 1f 44 00 00       	nopl   0x0(%rax,%rax,1)

00000000004041d0 <str_cmp>:
  4041d0:	eb 0e                	jmp    4041e0 <str_cmp+0x10>
  4041d2:	66 0f 1f 44 00 00    	nopw   0x0(%rax,%rax,1)
  4041d8:	48 83 c7 01          	add    $0x1,%rdi
  4041dc:	84 c0                	test   %al,%al
  4041de:	74 20                	je     404200 <str_cmp+0x30>
  4041e0:	48 83 c6 01          	add    $0x1,%rsi
  4041e4:	0f b6 07             	movzbl (%rdi),%eax
  4041e7:	0f b6 56 ff          	movzbl -0x1(%rsi),%edx
  4041eb:	38 d0                	cmp    %dl,%al
  4041ed:	74 e9                	je     4041d8 <str_cmp+0x8>
  4041ef:	38 c2                	cmp    %al,%dl
  4041f1:	0f 9e c0             	setle  %al
  4041f4:	0f b6 c0             	movzbl %al,%eax
  4041f7:	8d 44 00 ff          	lea    -0x1(%rax,%rax,1),%eax
  4041fb:	c3                   	retq   
  4041fc:	0f 1f 40 00          	nopl   0x0(%rax)
  404200:	31 c0                	xor    %eax,%eax
  404202:	c3                   	retq   
  404203:	66 66 66 66 2e 0f 1f 	data32 data32 data32 nopw %cs:0x0(%rax,%rax,1)
  40420a:	84 00 00 00 00 00 

0000000000404210 <str_icmp>:
  404210:	eb 12                	jmp    404224 <str_icmp+0x14>
  404212:	66 0f 1f 44 00 00    	nopw   0x0(%rax,%rax,1)
  404218:	48 83 c7 01          	add    $0x1,%rdi
  40421c:	84 d2                	test   %dl,%dl
  40421e:	74 60                	je     404280 <str_icmp+0x70>
  404220:	48 83 c6 01          	add    $0x1,%rsi
  404224:	0f b6 17             	movzbl (%rdi),%edx
  404227:	44 8d 4a 9f          	lea    -0x61(%rdx),%r9d
  40422b:	44 0f be c2          	movsbl %dl,%r8d
  40422f:	45 8d 50 e0          	lea    -0x20(%r8),%r10d
  404233:	41 80 f9 19          	cmp    $0x19,%r9b
  404237:	76 03                	jbe    40423c <str_icmp+0x2c>
  404239:	45 89 c2             	mov    %r8d,%r10d
  40423c:	0f be 06             	movsbl (%rsi),%eax
  40423f:	8d 48 9f             	lea    -0x61(%rax),%ecx
  404242:	44 8d 58 e0          	lea    -0x20(%rax),%r11d
  404246:	80 f9 19             	cmp    $0x19,%cl
  404249:	41 0f 46 c3          	cmovbe %r11d,%eax
  40424d:	41 39 c2             	cmp    %eax,%r10d
  404250:	74 c6                	je     404218 <str_icmp+0x8>
  404252:	41 8d 40 e0          	lea    -0x20(%r8),%eax
  404256:	41 80 f9 19          	cmp    $0x19,%r9b
  40425a:	44 0f 46 c0          	cmovbe %eax,%r8d
  40425e:	0f be 46 ff          	movsbl -0x1(%rsi),%eax
  404262:	8d 50 9f             	lea    -0x61(%rax),%edx
  404265:	8d 48 e0             	lea    -0x20(%rax),%ecx
  404268:	80 fa 19             	cmp    $0x19,%dl
  40426b:	0f 46 c1             	cmovbe %ecx,%eax
  40426e:	41 39 c0             	cmp    %eax,%r8d
  404271:	0f 9d c0             	setge  %al
  404274:	0f b6 c0             	movzbl %al,%eax
  404277:	8d 44 00 ff          	lea    -0x1(%rax,%rax,1),%eax
  40427b:	c3                   	retq   
  40427c:	0f 1f 40 00          	nopl   0x0(%rax)
  404280:	31 c0                	xor    %eax,%eax
  404282:	c3                   	retq   
  404283:	66 66 66 66 2e 0f 1f 	data32 data32 data32 nopw %cs:0x0(%rax,%rax,1)
  40428a:	84 00 00 00 00 00 

0000000000404290 <xlate_nl>:
  404290:	0f b6 17             	movzbl (%rdi),%edx
  404293:	84 d2                	test   %dl,%dl
  404295:	74 35                	je     4042cc <xlate_nl+0x3c>
  404297:	31 c0                	xor    %eax,%eax
  404299:	eb 20                	jmp    4042bb <xlate_nl+0x2b>
  40429b:	0f 1f 44 00 00       	nopl   0x0(%rax,%rax,1)
  4042a0:	48 83 c7 01          	add    $0x1,%rdi
  4042a4:	0f b6 57 ff          	movzbl -0x1(%rdi),%edx
  4042a8:	83 c0 01             	add    $0x1,%eax
  4042ab:	48 8d 4e 01          	lea    0x1(%rsi),%rcx
  4042af:	88 16                	mov    %dl,(%rsi)
  4042b1:	0f b6 17             	movzbl (%rdi),%edx
  4042b4:	84 d2                	test   %dl,%dl
  4042b6:	74 20                	je     4042d8 <xlate_nl+0x48>
  4042b8:	48 89 ce             	mov    %rcx,%rsi
  4042bb:	80 fa 0a             	cmp    $0xa,%dl
  4042be:	75 e0                	jne    4042a0 <xlate_nl+0x10>
  4042c0:	c6 06 0d             	movb   $0xd,(%rsi)
  4042c3:	83 c0 01             	add    $0x1,%eax
  4042c6:	48 83 c6 01          	add    $0x1,%rsi
  4042ca:	eb d4                	jmp    4042a0 <xlate_nl+0x10>
  4042cc:	48 89 f1             	mov    %rsi,%rcx
  4042cf:	31 c0                	xor    %eax,%eax
  4042d1:	0f 1f 80 00 00 00 00 	nopl   0x0(%rax)
  4042d8:	c6 01 00             	movb   $0x0,(%rcx)
  4042db:	c3                   	retq   
  4042dc:	0f 1f 40 00          	nopl   0x0(%rax)

00000000004042e0 <xlate_nl_inplace>:
  4042e0:	0f b6 0f             	movzbl (%rdi),%ecx
  4042e3:	84 c9                	test   %cl,%cl
  4042e5:	74 7b                	je     404362 <xlate_nl_inplace+0x82>
  4042e7:	48 89 f8             	mov    %rdi,%rax
  4042ea:	31 d2                	xor    %edx,%edx
  4042ec:	0f 1f 40 00          	nopl   0x0(%rax)
  4042f0:	80 f9 0a             	cmp    $0xa,%cl
  4042f3:	0f 94 c1             	sete   %cl
  4042f6:	48 83 c0 01          	add    $0x1,%rax
  4042fa:	0f b6 c9             	movzbl %cl,%ecx
  4042fd:	89 c6                	mov    %eax,%esi
  4042ff:	01 ca                	add    %ecx,%edx
  404301:	0f b6 08             	movzbl (%rax),%ecx
  404304:	29 fe                	sub    %edi,%esi
  404306:	84 c9                	test   %cl,%cl
  404308:	75 e6                	jne    4042f0 <xlate_nl_inplace+0x10>
  40430a:	85 d2                	test   %edx,%edx
  40430c:	89 f0                	mov    %esi,%eax
  40430e:	74 50                	je     404360 <xlate_nl_inplace+0x80>
  404310:	44 8d 0c 32          	lea    (%rdx,%rsi,1),%r9d
  404314:	48 63 ce             	movslq %esi,%rcx
  404317:	48 01 f9             	add    %rdi,%rcx
  40431a:	44 89 c8             	mov    %r9d,%eax
  40431d:	eb 10                	jmp    40432f <xlate_nl_inplace+0x4f>
  40431f:	90                   	nop
  404320:	83 ee 01             	sub    $0x1,%esi
  404323:	48 83 e9 01          	sub    $0x1,%rcx
  404327:	85 d2                	test   %edx,%edx
  404329:	74 35                	je     404360 <xlate_nl_inplace+0x80>
  40432b:	44 8d 0c 32          	lea    (%rdx,%rsi,1),%r9d
  40432f:	44 0f b6 01          	movzbl (%rcx),%r8d
  404333:	4d 63 c9             	movslq %r9d,%r9
  404336:	41 80 f8 0a          	cmp    $0xa,%r8b
  40433a:	46 88 04 0f          	mov    %r8b,(%rdi,%r9,1)
  40433e:	75 e0                	jne    404320 <xlate_nl_inplace+0x40>
  404340:	83 ea 01             	sub    $0x1,%edx
  404343:	48 83 e9 01          	sub    $0x1,%rcx
  404347:	44 8d 04 16          	lea    (%rsi,%rdx,1),%r8d
  40434b:	83 ee 01             	sub    $0x1,%esi
  40434e:	85 d2                	test   %edx,%edx
  404350:	4d 63 c0             	movslq %r8d,%r8
  404353:	42 c6 04 07 0d       	movb   $0xd,(%rdi,%r8,1)
  404358:	75 d1                	jne    40432b <xlate_nl_inplace+0x4b>
  40435a:	66 0f 1f 44 00 00    	nopw   0x0(%rax,%rax,1)
  404360:	f3 c3                	repz retq 
  404362:	31 c0                	xor    %eax,%eax
  404364:	c3                   	retq   
  404365:	66 2e 0f 1f 84 00 00 	nopw   %cs:0x0(%rax,%rax,1)
  40436c:	00 00 00 
  40436f:	90                   	nop

0000000000404370 <__libc_csu_init>:
  404370:	41 57                	push   %r15
  404372:	41 89 ff             	mov    %edi,%r15d
  404375:	41 56                	push   %r14
  404377:	49 89 f6             	mov    %rsi,%r14
  40437a:	41 55                	push   %r13
  40437c:	49 89 d5             	mov    %rdx,%r13
  40437f:	41 54                	push   %r12
  404381:	4c 8d 25 88 6a 20 00 	lea    0x206a88(%rip),%r12        # 60ae10 <__frame_dummy_init_array_entry>
  404388:	55                   	push   %rbp
  404389:	48 8d 2d 88 6a 20 00 	lea    0x206a88(%rip),%rbp        # 60ae18 <__init_array_end>
  404390:	53                   	push   %rbx
  404391:	4c 29 e5             	sub    %r12,%rbp
  404394:	31 db                	xor    %ebx,%ebx
  404396:	48 c1 fd 03          	sar    $0x3,%rbp
  40439a:	48 83 ec 08          	sub    $0x8,%rsp
  40439e:	e8 65 c5 ff ff       	callq  400908 <_init>
  4043a3:	48 85 ed             	test   %rbp,%rbp
  4043a6:	74 1e                	je     4043c6 <__libc_csu_init+0x56>
  4043a8:	0f 1f 84 00 00 00 00 	nopl   0x0(%rax,%rax,1)
  4043af:	00 
  4043b0:	4c 89 ea             	mov    %r13,%rdx
  4043b3:	4c 89 f6             	mov    %r14,%rsi
  4043b6:	44 89 ff             	mov    %r15d,%edi
  4043b9:	41 ff 14 dc          	callq  *(%r12,%rbx,8)
  4043bd:	48 83 c3 01          	add    $0x1,%rbx
  4043c1:	48 39 eb             	cmp    %rbp,%rbx
  4043c4:	75 ea                	jne    4043b0 <__libc_csu_init+0x40>
  4043c6:	48 83 c4 08          	add    $0x8,%rsp
  4043ca:	5b                   	pop    %rbx
  4043cb:	5d                   	pop    %rbp
  4043cc:	41 5c                	pop    %r12
  4043ce:	41 5d                	pop    %r13
  4043d0:	41 5e                	pop    %r14
  4043d2:	41 5f                	pop    %r15
  4043d4:	c3                   	retq   
  4043d5:	66 66 2e 0f 1f 84 00 	data32 nopw %cs:0x0(%rax,%rax,1)
  4043dc:	00 00 00 00 

00000000004043e0 <__libc_csu_fini>:
  4043e0:	f3 c3                	repz retq 

Disassembly of section .fini:

00000000004043e4 <_fini>:
  4043e4:	48 83 ec 08          	sub    $0x8,%rsp
  4043e8:	48 83 c4 08          	add    $0x8,%rsp
  4043ec:	c3                   	retq   
